Certificate:
    Data:
        Version: 3 (0x2)
        Serial Number: 5 (0x5)
    Signature Algorithm: sha256WithRSAEncryption
        Issuer: C=DE, O=Fraunhofer, CN=IDS SubCA 2016
        Validity
            Not Before: Feb 15 10:54:09 2017 GMT
            Not After : Feb 15 10:54:09 2019 GMT
        Subject: C=DE, ST=Bayern, L=Muenchen, O=Fraunhofer, OU=AISEC, CN=AISEC IDS Client
        Subject Public Key Info:
            Public Key Algorithm: rsaEncryption
                Public-Key: (2048 bit)
                Modulus:
                    00:c7:37:46:b3:57:62:e3:e3:70:8a:34:7f:48:ea:
                    f1:b6:34:c8:c7:ba:a5:ad:92:70:24:e4:2b:b2:2b:
                    db:75:57:43:a5:e8:95:69:3b:fd:9e:b7:c1:3e:34:
                    49:b0:3d:5e:65:6d:ec:68:b1:b3:be:41:2e:df:dc:
                    76:05:2f:b3:2e:42:f3:e8:8b:e3:25:c7:81:10:e3:
                    4f:44:a9:7f:ab:40:1b:a8:c8:38:63:01:16:ff:81:
                    01:a7:ac:4e:97:13:2d:92:60:f9:a4:32:3b:fc:8a:
                    6c:4e:e5:ec:36:38:42:32:22:39:63:38:68:85:05:
                    51:be:54:6c:11:fd:34:f0:ae:05:be:97:70:0d:bb:
                    4e:9b:35:c1:b0:cf:bd:d0:bf:32:32:ad:d4:ce:1e:
                    dd:ab:69:5d:3f:69:b4:97:c1:6e:82:d8:65:65:f2:
                    4c:ae:12:77:ba:33:7b:69:5e:0d:63:1a:fb:43:70:
                    a0:56:24:2b:51:83:87:fe:b1:db:fc:2d:99:9f:c8:
                    6f:46:d5:28:03:0a:c2:43:aa:32:fc:61:1a:fc:5f:
                    1b:53:b9:b7:fd:10:d2:5d:5b:81:16:49:f0:4a:21:
                    9e:be:67:1d:94:89:84:ff:9f:d5:81:9a:97:20:96:
                    78:be:47:c3:c3:51:bb:fd:3e:09:ec:36:3d:6f:1b:
                    11:61
                Exponent: 65537 (0x10001)
        X509v3 extensions:
            X509v3 Subject Key Identifier: 
                9F:E7:48:2B:6E:7F:EF:52:DB:18:5F:EE:31:C9:2F:0C:D6:9F:C6:7D
            X509v3 Authority Key Identifier: 
                keyid:89:8B:82:EF:6B:2E:E4:40:2D:CE:5C:6C:F7:78:2E:7A:B0:7B:19:1D

            X509v3 Basic Constraints: 
                CA:FALSE
            X509v3 Key Usage: 
                Digital Signature, Key Encipherment
            X509v3 CRL Distribution Points: 

                Full Name:
                  URI:http://crl.aisec.fraunhofer.de/ids.crl

            Authority Information Access: 
                CA Issuers - URI:http://downloads.aisec.fraunhofer.de/rootcacert2016.cert

            X509v3 Extended Key Usage: 
                TLS Web Client Authentication, TLS Web Server Authentication
            X509v3 Subject Alternative Name: 
                DNS:localhost, DNS:idsconnector.aisec.fraunhofer.de, IP Address:127.0.0.1, IP Address:10.1.2.15, IP Address:10.1.2.16, IP Address:10.1.2.17, IP Address:10.1.2.18, IP Address:10.1.2.19
    Signature Algorithm: sha256WithRSAEncryption
         b3:73:00:e9:18:66:e9:57:12:e1:47:20:58:8e:ed:87:43:3b:
         b4:fc:4c:63:0c:4e:6e:73:ce:9f:ec:6a:49:e9:2a:fe:a4:5a:
         02:5b:ae:aa:ed:bc:0c:00:07:82:5e:09:e1:fc:23:6e:bb:b8:
         71:7c:09:4b:ac:9b:5b:2f:6b:84:4c:45:a3:60:18:b0:69:d3:
         fb:d6:79:c7:7a:78:34:bc:29:ec:61:fd:b3:7c:d0:7b:79:5e:
         eb:94:cb:ec:9e:32:41:64:d5:79:3f:42:56:14:22:f8:5d:fe:
         28:67:0c:f3:c6:b0:8f:23:db:61:6d:5a:7b:88:0f:37:b8:ec:
         76:90:ef:88:20:00:37:c4:d9:56:34:10:56:2c:54:8a:4a:55:
         7b:a4:e5:2d:82:84:a9:5a:fa:77:21:b9:63:9e:bc:8b:5a:f3:
         39:bc:9f:c5:da:05:e8:e8:cb:c0:d8:63:81:8f:d4:17:ff:08:
         8d:db:1e:0d:a0:46:03:10:f0:36:e3:ce:11:36:0f:a8:3d:7c:
         af:3f:6c:f7:38:a0:62:a3:da:9e:ea:c2:b0:34:ac:43:8d:72:
         97:89:21:75:fe:6b:12:68:18:2e:e5:b9:07:25:b4:55:bc:c4:
         65:55:a4:cc:b8:d3:ba:e9:39:76:fb:43:56:3a:18:83:4a:66:
         be:2b:f3:7f
-----BEGIN CERTIFICATE-----
MIIEjzCCA3egAwIBAgIBBTANBgkqhkiG9w0BAQsFADA7MQswCQYDVQQGEwJERTET
MBEGA1UECgwKRnJhdW5ob2ZlcjEXMBUGA1UEAwwOSURTIFN1YkNBIDIwMTYwHhcN
MTcwMjE1MTA1NDA5WhcNMTkwMjE1MTA1NDA5WjBxMQswCQYDVQQGEwJERTEPMA0G
A1UECAwGQmF5ZXJuMREwDwYDVQQHDAhNdWVuY2hlbjETMBEGA1UECgwKRnJhdW5o
b2ZlcjEOMAwGA1UECwwFQUlTRUMxGTAXBgNVBAMMEEFJU0VDIElEUyBDbGllbnQw
ggEiMA0GCSqGSIb3DQEBAQUAA4IBDwAwggEKAoIBAQDHN0azV2Lj43CKNH9I6vG2
NMjHuqWtknAk5CuyK9t1V0Ol6JVpO/2et8E+NEmwPV5lbexosbO+QS7f3HYFL7Mu
QvPoi+Mlx4EQ409EqX+rQBuoyDhjARb/gQGnrE6XEy2SYPmkMjv8imxO5ew2OEIy
IjljOGiFBVG+VGwR/TTwrgW+l3ANu06bNcGwz73QvzIyrdTOHt2raV0/abSXwW6C
2GVl8kyuEne6M3tpXg1jGvtDcKBWJCtRg4f+sdv8LZmfyG9G1SgDCsJDqjL8YRr8
XxtTubf9ENJdW4EWSfBKIZ6+Zx2UiYT/n9WBmpcglni+R8PDUbv9PgnsNj1vGxFh
AgMBAAGjggFmMIIBYjAdBgNVHQ4EFgQUn+dIK25/71LbGF/uMckvDNafxn0wHwYD
VR0jBBgwFoAUiYuC72su5EAtzlxs93guerB7GR0wCQYDVR0TBAIwADALBgNVHQ8E
BAMCBaAwNwYDVR0fBDAwLjAsoCqgKIYmaHR0cDovL2NybC5haXNlYy5mcmF1bmhv
ZmVyLmRlL2lkcy5jcmwwVAYIKwYBBQUHAQEESDBGMEQGCCsGAQUFBzAChjhodHRw
Oi8vZG93bmxvYWRzLmFpc2VjLmZyYXVuaG9mZXIuZGUvcm9vdGNhY2VydDIwMTYu
Y2VydDAdBgNVHSUEFjAUBggrBgEFBQcDAgYIKwYBBQUHAwEwWgYDVR0RBFMwUYIJ
bG9jYWxob3N0giBpZHNjb25uZWN0b3IuYWlzZWMuZnJhdW5ob2Zlci5kZYcEfwAA
AYcECgECD4cECgECEIcECgECEYcECgECEocECgECEzANBgkqhkiG9w0BAQsFAAOC
AQEAs3MA6Rhm6VcS4UcgWI7th0M7tPxMYwxObnPOn+xqSekq/qRaAluuqu28DAAH
gl4J4fwjbru4cXwJS6ybWy9rhExFo2AYsGnT+9Z5x3p4NLwp7GH9s3zQe3le65TL
7J4yQWTVeT9CVhQi+F3+KGcM88awjyPbYW1ae4gPN7jsdpDviCAAN8TZVjQQVixU
ikpVe6TlLYKEqVr6dyG5Y568i1rzObyfxdoF6OjLwNhjgY/UF/8IjdseDaBGAxDw
NuPOETYPqD18rz9s9zigYqPanurCsDSsQ41yl4khdf5rEmgYLuW5ByW0VbzEZVWk
zLjTuuk5dvtDVjoYg0pmvivzfw==
-----END CERTIFICATE-----
