Certificate:
    Data:
        Version: 3 (0x2)
        Serial Number: 6 (0x6)
    Signature Algorithm: sha256WithRSAEncryption
        Issuer: C=DE, O=Fraunhofer, CN=IDS SubCA 2016
        Validity
            Not Before: Feb 15 11:48:45 2017 GMT
            Not After : Feb 15 11:48:45 2019 GMT
        Subject: C=DE, ST=Bayern, L=Muenchen, O=Fraunhofer, OU=AISEC, CN=AISEC IDS Client
        Subject Public Key Info:
            Public Key Algorithm: rsaEncryption
                Public-Key: (2048 bit)
                Modulus:
                    00:da:df:c7:09:ce:93:90:3e:75:e6:2d:33:22:0a:
                    d5:35:a6:c6:53:4f:eb:d7:bd:a5:e4:8b:13:3c:8d:
                    a6:e8:bb:57:34:7e:41:1a:af:5d:46:14:77:f6:b3:
                    22:91:84:4b:42:e4:7f:9d:1d:48:68:fd:dd:bd:ef:
                    7e:4b:a5:49:7a:86:05:18:e0:f6:a3:6e:d2:cf:b3:
                    37:4f:40:4d:71:2b:6b:79:8c:e4:7d:e6:d4:45:c6:
                    3f:b6:f4:d2:2d:98:eb:aa:b4:e8:fd:df:78:f4:58:
                    7d:2f:2c:74:8d:bc:6b:c1:e5:34:66:90:8c:4d:87:
                    94:7b:b2:10:67:8a:3b:d9:33:16:1f:cc:c5:c1:17:
                    66:9d:2d:e2:bf:21:2a:b7:ca:38:2f:e6:89:2e:cf:
                    d7:30:50:49:73:f1:c1:e1:b9:78:26:e2:e7:35:d5:
                    0f:8d:7b:7b:9e:ba:b9:e9:18:6e:f3:b3:6e:44:a6:
                    42:23:54:7e:84:ca:64:a0:1f:e5:ec:57:7a:94:b1:
                    50:13:b2:43:1f:0f:aa:dc:0f:14:0f:5e:f0:72:ff:
                    5a:ac:22:bb:90:67:d7:c6:05:e3:3f:46:df:6e:15:
                    31:66:6e:c6:79:fa:fe:9b:62:80:da:7e:9a:0e:63:
                    f9:bc:64:b4:79:db:9d:ff:a0:5f:8d:4a:4f:7a:19:
                    6e:8d
                Exponent: 65537 (0x10001)
        X509v3 extensions:
            X509v3 Subject Key Identifier: 
                20:FB:F1:B6:EB:55:5D:9C:AB:BE:6E:E1:3F:B3:A9:45:16:D6:1E:2E
            X509v3 Authority Key Identifier: 
                keyid:89:8B:82:EF:6B:2E:E4:40:2D:CE:5C:6C:F7:78:2E:7A:B0:7B:19:1D

            X509v3 Basic Constraints: 
                CA:FALSE
            X509v3 Key Usage: 
                Digital Signature, Key Encipherment
            X509v3 CRL Distribution Points: 

                Full Name:
                  URI:http://crl.aisec.fraunhofer.de/ids.crl

            Authority Information Access: 
                CA Issuers - URI:http://downloads.aisec.fraunhofer.de/rootcacert2016.cert

            X509v3 Extended Key Usage: 
                TLS Web Client Authentication, TLS Web Server Authentication
            X509v3 Subject Alternative Name: 
                DNS:localhost, DNS:idsconnector.aisec.fraunhofer.de, IP Address:127.0.0.1, IP Address:10.1.2.15, IP Address:10.1.2.16, IP Address:10.1.2.17, IP Address:10.1.2.18, IP Address:10.1.2.19, IP Address:10.1.2.20, IP Address:10.1.2.21
    Signature Algorithm: sha256WithRSAEncryption
         19:d3:82:26:88:34:34:1c:3c:b8:5c:9b:51:c9:2a:0a:6b:be:
         1d:e7:42:30:1e:57:1e:55:54:44:42:34:9a:0f:71:63:29:f6:
         6a:46:a9:b7:d2:be:29:75:5f:9b:6f:d5:99:8e:36:bc:ff:0c:
         cd:27:37:5c:4e:f5:a9:da:5d:60:f1:39:15:62:75:5a:8a:ef:
         24:89:e2:ad:f0:b8:e2:80:59:ef:78:b7:15:77:8e:3a:21:3d:
         64:83:71:13:9a:c0:55:da:98:a5:e0:e8:96:7b:ca:2a:12:1d:
         fa:d8:e1:cc:8c:b6:4b:a0:0c:f1:a4:5e:be:84:a7:45:a0:f2:
         47:73:bf:cc:3b:d8:d3:3f:3a:25:c8:11:fc:bd:ef:ca:24:10:
         22:06:b7:b7:48:79:bf:8f:8f:d1:4b:f3:5d:ff:b1:04:e6:6c:
         16:ec:fe:aa:01:10:b4:a2:e2:a2:a8:b1:fe:61:8c:6f:29:98:
         7f:9a:32:65:dd:a5:1e:5c:53:b7:c6:9f:a6:c9:68:2e:73:42:
         2e:43:7f:1b:3b:a2:e8:80:d5:9b:06:b5:38:73:b2:15:ae:6f:
         78:bc:95:64:5f:b4:6a:ce:b5:53:e4:30:2d:b8:0e:2f:57:ae:
         57:62:26:43:94:81:1c:73:63:57:9c:c2:29:1f:06:14:c4:fa:
         52:3a:99:e4
-----BEGIN CERTIFICATE-----
MIIEmzCCA4OgAwIBAgIBBjANBgkqhkiG9w0BAQsFADA7MQswCQYDVQQGEwJERTET
MBEGA1UECgwKRnJhdW5ob2ZlcjEXMBUGA1UEAwwOSURTIFN1YkNBIDIwMTYwHhcN
MTcwMjE1MTE0ODQ1WhcNMTkwMjE1MTE0ODQ1WjBxMQswCQYDVQQGEwJERTEPMA0G
A1UECAwGQmF5ZXJuMREwDwYDVQQHDAhNdWVuY2hlbjETMBEGA1UECgwKRnJhdW5o
b2ZlcjEOMAwGA1UECwwFQUlTRUMxGTAXBgNVBAMMEEFJU0VDIElEUyBDbGllbnQw
ggEiMA0GCSqGSIb3DQEBAQUAA4IBDwAwggEKAoIBAQDa38cJzpOQPnXmLTMiCtU1
psZTT+vXvaXkixM8jabou1c0fkEar11GFHf2syKRhEtC5H+dHUho/d29735LpUl6
hgUY4PajbtLPszdPQE1xK2t5jOR95tRFxj+29NItmOuqtOj933j0WH0vLHSNvGvB
5TRmkIxNh5R7shBnijvZMxYfzMXBF2adLeK/ISq3yjgv5okuz9cwUElz8cHhuXgm
4uc11Q+Ne3ueurnpGG7zs25EpkIjVH6EymSgH+XsV3qUsVATskMfD6rcDxQPXvBy
/1qsIruQZ9fGBeM/Rt9uFTFmbsZ5+v6bYoDafpoOY/m8ZLR5253/oF+NSk96GW6N
AgMBAAGjggFyMIIBbjAdBgNVHQ4EFgQUIPvxtutVXZyrvm7hP7OpRRbWHi4wHwYD
VR0jBBgwFoAUiYuC72su5EAtzlxs93guerB7GR0wCQYDVR0TBAIwADALBgNVHQ8E
BAMCBaAwNwYDVR0fBDAwLjAsoCqgKIYmaHR0cDovL2NybC5haXNlYy5mcmF1bmhv
ZmVyLmRlL2lkcy5jcmwwVAYIKwYBBQUHAQEESDBGMEQGCCsGAQUFBzAChjhodHRw
Oi8vZG93bmxvYWRzLmFpc2VjLmZyYXVuaG9mZXIuZGUvcm9vdGNhY2VydDIwMTYu
Y2VydDAdBgNVHSUEFjAUBggrBgEFBQcDAgYIKwYBBQUHAwEwZgYDVR0RBF8wXYIJ
bG9jYWxob3N0giBpZHNjb25uZWN0b3IuYWlzZWMuZnJhdW5ob2Zlci5kZYcEfwAA
AYcECgECD4cECgECEIcECgECEYcECgECEocECgECE4cECgECFIcECgECFTANBgkq
hkiG9w0BAQsFAAOCAQEAGdOCJog0NBw8uFybUckqCmu+HedCMB5XHlVUREI0mg9x
Yyn2akapt9K+KXVfm2/VmY42vP8MzSc3XE71qdpdYPE5FWJ1WorvJInirfC44oBZ
73i3FXeOOiE9ZINxE5rAVdqYpeDolnvKKhId+tjhzIy2S6AM8aRevoSnRaDyR3O/
zDvY0z86JcgR/L3vyiQQIga3t0h5v4+P0UvzXf+xBOZsFuz+qgEQtKLioqix/mGM
bymYf5oyZd2lHlxTt8afpsloLnNCLkN/Gzui6IDVmwa1OHOyFa5veLyVZF+0as61
U+QwLbgOL1euV2ImQ5SBHHNjV5zCKR8GFMT6UjqZ5A==
-----END CERTIFICATE-----
