Certificate:
    Data:
        Version: 3 (0x2)
        Serial Number: 8 (0x8)
    Signature Algorithm: sha256WithRSAEncryption
        Issuer: C=DE, O=Fraunhofer, CN=IDS SubCA 2016
        Validity
            Not Before: Feb 15 12:20:54 2017 GMT
            Not After : Feb 15 12:20:54 2019 GMT
        Subject: C=DE, ST=Bayern, L=Muenchen, O=Fraunhofer, OU=AISEC, CN=AISEC IDS Client
        Subject Public Key Info:
            Public Key Algorithm: rsaEncryption
                Public-Key: (2048 bit)
                Modulus:
                    00:ab:5e:79:16:ab:09:6c:01:82:39:85:35:68:89:
                    5e:97:80:17:f4:ce:82:49:72:a2:c8:f0:a0:4d:29:
                    1b:fd:fb:da:72:e0:e3:43:f6:bf:ab:a6:5c:18:a8:
                    e0:e1:9f:6d:ae:18:ed:46:60:d1:62:71:14:a0:91:
                    24:2c:dd:23:77:5c:6c:16:23:b5:7a:17:23:8a:04:
                    f1:61:17:10:84:8f:9f:b0:55:1d:f5:51:6b:fb:39:
                    e0:3b:e2:df:e4:a2:b6:88:5e:4a:62:cb:38:1f:5d:
                    97:46:24:06:f2:57:7d:0b:fd:44:9a:a2:6c:b5:62:
                    75:0f:09:ff:c6:50:ba:23:3f:a9:72:51:5f:b7:56:
                    e8:de:9c:c2:a8:e3:29:60:af:83:3f:a5:e4:f6:f8:
                    62:6f:9e:0e:ed:ab:0e:72:04:da:45:cc:60:9e:d2:
                    f3:ea:f0:e3:8d:50:72:ef:37:6d:74:cc:8e:14:ce:
                    25:58:35:18:50:37:56:f5:af:5c:9e:41:d0:3c:e0:
                    64:d4:a3:e6:f9:3d:b0:1a:a8:90:94:53:9b:bf:e2:
                    04:22:40:71:c5:ab:10:9a:16:9c:00:71:ec:9e:0f:
                    87:ba:95:18:ba:df:de:8e:2d:5c:0a:37:ab:3f:7a:
                    37:05:cb:05:cd:ff:8e:6e:c5:b0:db:88:58:04:c1:
                    07:31
                Exponent: 65537 (0x10001)
        X509v3 extensions:
            X509v3 Subject Key Identifier: 
                7F:87:F0:CE:E0:E9:9F:EC:D8:4F:98:EF:BE:3F:D4:30:A0:BC:80:F2
            X509v3 Authority Key Identifier: 
                keyid:89:8B:82:EF:6B:2E:E4:40:2D:CE:5C:6C:F7:78:2E:7A:B0:7B:19:1D

            X509v3 Basic Constraints: 
                CA:FALSE
            X509v3 Key Usage: 
                Digital Signature, Key Encipherment
            X509v3 CRL Distribution Points: 

                Full Name:
                  URI:http://crl.aisec.fraunhofer.de/ids.crl

            Authority Information Access: 
                CA Issuers - URI:http://downloads.aisec.fraunhofer.de/rootcacert2016.cert

            X509v3 Extended Key Usage: 
                TLS Web Client Authentication, TLS Web Server Authentication
            X509v3 Subject Alternative Name: 
                DNS:localhost, DNS:idsconnector.aisec.fraunhofer.de, IP Address:0.0.0.0
    Signature Algorithm: sha256WithRSAEncryption
         8a:30:c6:95:9d:5f:3d:e1:73:1a:94:62:0e:81:07:99:ac:bd:
         d8:12:27:5d:29:1a:ea:5f:ab:eb:6d:1e:ae:df:38:ef:39:28:
         f3:25:cf:3a:06:e1:01:c7:ef:e7:21:98:b6:22:22:f5:a6:c2:
         90:4f:fb:45:17:75:f4:da:c5:2b:ca:62:4e:bc:a4:48:ed:e7:
         d3:9e:38:3a:ca:de:90:9d:b8:fe:7d:c9:28:1a:39:96:24:b3:
         24:78:23:3b:1d:ef:e5:4c:8f:2a:c9:b8:a5:08:c3:43:47:a6:
         a6:1f:ab:8d:bb:07:ce:6a:77:f5:d6:65:de:78:fb:ca:ff:36:
         80:09:2f:63:19:65:6a:b7:39:2e:f8:7f:6c:4a:79:31:9d:d6:
         e4:b7:05:07:3f:72:82:70:76:51:8b:ec:8b:98:5f:38:ed:30:
         ad:8f:a0:b5:17:99:92:fc:1a:5b:e6:c6:b2:f7:d9:f3:71:8a:
         e5:b5:ba:47:64:00:15:f8:88:90:04:ff:13:ae:08:6c:0c:a6:
         e8:61:e6:32:4c:4b:d1:d8:50:92:a0:65:a7:f6:da:d2:35:7e:
         c9:52:ba:2a:79:c7:4a:18:1a:80:fc:90:c2:f4:95:d3:ca:1f:
         68:36:26:da:08:81:06:74:80:68:24:23:d8:24:55:44:d6:5f:
         a3:b3:30:b8
-----BEGIN CERTIFICATE-----
MIIEcTCCA1mgAwIBAgIBCDANBgkqhkiG9w0BAQsFADA7MQswCQYDVQQGEwJERTET
MBEGA1UECgwKRnJhdW5ob2ZlcjEXMBUGA1UEAwwOSURTIFN1YkNBIDIwMTYwHhcN
MTcwMjE1MTIyMDU0WhcNMTkwMjE1MTIyMDU0WjBxMQswCQYDVQQGEwJERTEPMA0G
A1UECAwGQmF5ZXJuMREwDwYDVQQHDAhNdWVuY2hlbjETMBEGA1UECgwKRnJhdW5o
b2ZlcjEOMAwGA1UECwwFQUlTRUMxGTAXBgNVBAMMEEFJU0VDIElEUyBDbGllbnQw
ggEiMA0GCSqGSIb3DQEBAQUAA4IBDwAwggEKAoIBAQCrXnkWqwlsAYI5hTVoiV6X
gBf0zoJJcqLI8KBNKRv9+9py4OND9r+rplwYqODhn22uGO1GYNFicRSgkSQs3SN3
XGwWI7V6FyOKBPFhFxCEj5+wVR31UWv7OeA74t/koraIXkpiyzgfXZdGJAbyV30L
/USaomy1YnUPCf/GULojP6lyUV+3VujenMKo4ylgr4M/peT2+GJvng7tqw5yBNpF
zGCe0vPq8OONUHLvN210zI4UziVYNRhQN1b1r1yeQdA84GTUo+b5PbAaqJCUU5u/
4gQiQHHFqxCaFpwAceyeD4e6lRi6396OLVwKN6s/ejcFywXN/45uxbDbiFgEwQcx
AgMBAAGjggFIMIIBRDAdBgNVHQ4EFgQUf4fwzuDpn+zYT5jvvj/UMKC8gPIwHwYD
VR0jBBgwFoAUiYuC72su5EAtzlxs93guerB7GR0wCQYDVR0TBAIwADALBgNVHQ8E
BAMCBaAwNwYDVR0fBDAwLjAsoCqgKIYmaHR0cDovL2NybC5haXNlYy5mcmF1bmhv
ZmVyLmRlL2lkcy5jcmwwVAYIKwYBBQUHAQEESDBGMEQGCCsGAQUFBzAChjhodHRw
Oi8vZG93bmxvYWRzLmFpc2VjLmZyYXVuaG9mZXIuZGUvcm9vdGNhY2VydDIwMTYu
Y2VydDAdBgNVHSUEFjAUBggrBgEFBQcDAgYIKwYBBQUHAwEwPAYDVR0RBDUwM4IJ
bG9jYWxob3N0giBpZHNjb25uZWN0b3IuYWlzZWMuZnJhdW5ob2Zlci5kZYcEAAAA
ADANBgkqhkiG9w0BAQsFAAOCAQEAijDGlZ1fPeFzGpRiDoEHmay92BInXSka6l+r
620ert847zko8yXPOgbhAcfv5yGYtiIi9abCkE/7RRd19NrFK8piTrykSO3n0544
OsrekJ24/n3JKBo5liSzJHgjOx3v5UyPKsm4pQjDQ0emph+rjbsHzmp39dZl3nj7
yv82gAkvYxllarc5Lvh/bEp5MZ3W5LcFBz9ygnB2UYvsi5hfOO0wrY+gtReZkvwa
W+bGsvfZ83GK5bW6R2QAFfiIkAT/E64IbAym6GHmMkxL0dhQkqBlp/ba0jV+yVK6
KnnHShgagPyQwvSV08ofaDYm2giBBnSAaCQj2CRVRNZfo7MwuA==
-----END CERTIFICATE-----
