Certificate:
    Data:
        Version: 3 (0x2)
        Serial Number: 1 (0x1)
    Signature Algorithm: sha256WithRSAEncryption
        Issuer: C=DE, O=Fraunhofer, CN=IDS SubCA 2016
        Validity
            Not Before: Feb 15 10:40:12 2017 GMT
            Not After : Feb 15 10:40:12 2019 GMT
        Subject: C=DE, ST=Bayern, L=Muenchen, O=Fraunhofer, OU=AISEC, CN=AISEC IDS Client
        Subject Public Key Info:
            Public Key Algorithm: rsaEncryption
                Public-Key: (2048 bit)
                Modulus:
                    00:de:1b:f0:c8:00:b2:da:14:de:2d:75:47:69:de:
                    21:b1:0c:df:b8:3f:6b:3b:b9:a5:c1:79:b5:5e:e0:
                    19:bc:f6:50:3c:86:bb:51:df:ce:f4:1b:39:0c:a4:
                    d2:33:94:e3:fa:10:8c:4c:ae:19:c2:ca:64:70:24:
                    09:d4:8c:de:85:54:10:00:7e:fc:64:ea:59:5e:fb:
                    60:e7:62:32:20:24:0d:63:05:ac:e2:a4:89:9e:6c:
                    39:4d:cf:ed:5b:c9:74:2f:79:5d:71:86:7d:95:0c:
                    e6:c7:10:77:5e:c7:f8:aa:83:6b:03:73:45:ac:1d:
                    e5:52:5c:17:72:f9:c9:04:f8:7d:51:a5:51:d4:b8:
                    cc:69:0c:55:4f:88:0f:ff:f9:d5:2d:6d:12:66:33:
                    ec:d0:b9:9a:74:a5:b9:b8:8c:ea:52:a8:43:79:1a:
                    82:fc:76:13:69:74:1e:83:04:99:4a:cb:ca:74:17:
                    1d:a9:c1:aa:b1:c1:31:82:eb:8f:83:36:2f:4d:6f:
                    14:ae:18:da:dc:0e:47:a2:78:a2:69:2d:ad:5e:a5:
                    5b:e8:86:10:10:57:cc:3c:6b:16:02:33:99:16:a7:
                    92:fc:8a:de:ce:91:ba:c6:38:21:cf:9c:71:6d:5e:
                    7a:f2:84:08:9e:26:b5:eb:e9:c0:b1:ca:36:ce:26:
                    26:77
                Exponent: 65537 (0x10001)
        X509v3 extensions:
            X509v3 Subject Key Identifier: 
                0A:76:2C:69:51:01:75:28:A4:98:A5:68:84:88:95:70:EC:0D:0E:A5
            X509v3 Authority Key Identifier: 
                keyid:89:8B:82:EF:6B:2E:E4:40:2D:CE:5C:6C:F7:78:2E:7A:B0:7B:19:1D

            X509v3 Basic Constraints: 
                CA:FALSE
            X509v3 Key Usage: 
                Digital Signature, Key Encipherment
            X509v3 CRL Distribution Points: 

                Full Name:
                  URI:http://crl.aisec.fraunhofer.de/ids.crl

            Authority Information Access: 
                CA Issuers - URI:http://downloads.aisec.fraunhofer.de/rootcacert2016.cert

            X509v3 Extended Key Usage: 
                TLS Web Client Authentication, TLS Web Server Authentication
            X509v3 Subject Alternative Name: 
                DNS:localhost, DNS:idsconnector.aisec.fraunhofer.de, IP Address:127.0.0.1, IP Address:10.1.2.15, IP Address:10.1.2.16, IP Address:10.1.2.17, IP Address:10.1.2.18, IP Address:10.1.2.19
    Signature Algorithm: sha256WithRSAEncryption
         5a:8f:2c:71:0e:84:38:31:68:eb:dc:7f:5f:5e:5e:ca:50:78:
         fc:61:75:50:16:e2:1e:11:82:9f:6c:fe:7c:9b:0e:6d:bf:42:
         79:72:79:85:0e:ce:95:21:68:ac:83:a6:62:44:14:f2:f5:06:
         99:03:d1:f4:ba:06:fc:ca:0c:2a:8c:88:9e:b7:88:dc:df:3a:
         a4:a5:b2:6e:2e:4f:0a:e4:23:95:a6:33:db:fa:45:e5:24:ed:
         6f:a4:62:09:33:7c:7f:ff:67:c9:fa:cb:fc:bd:d0:38:8c:a3:
         58:21:7b:2e:c3:92:46:c8:54:ff:31:44:04:36:b0:20:ff:3d:
         d9:05:cb:cd:d8:4f:be:49:a1:2c:cb:50:88:1b:91:9f:f1:f3:
         57:d9:9a:9b:d3:1f:ea:c4:15:a3:da:7b:f4:84:01:b2:b9:0b:
         c6:1b:fc:a3:2f:01:dc:60:5b:c3:7c:9e:76:4c:2c:d4:84:0c:
         3d:42:b4:48:f8:a3:72:34:b4:c5:40:ed:ba:7d:cc:8a:51:b9:
         8d:76:eb:8f:01:1a:0d:11:3a:b2:4c:d1:d0:84:38:21:bc:bc:
         eb:52:65:b2:3a:cb:7e:e2:f0:f0:79:d0:40:92:74:7f:36:f8:
         e6:85:fb:10:bd:67:ca:b6:25:79:c9:c1:7e:72:f2:48:82:d1:
         21:e1:90:03
-----BEGIN CERTIFICATE-----
MIIEjzCCA3egAwIBAgIBATANBgkqhkiG9w0BAQsFADA7MQswCQYDVQQGEwJERTET
MBEGA1UECgwKRnJhdW5ob2ZlcjEXMBUGA1UEAwwOSURTIFN1YkNBIDIwMTYwHhcN
MTcwMjE1MTA0MDEyWhcNMTkwMjE1MTA0MDEyWjBxMQswCQYDVQQGEwJERTEPMA0G
A1UECAwGQmF5ZXJuMREwDwYDVQQHDAhNdWVuY2hlbjETMBEGA1UECgwKRnJhdW5o
b2ZlcjEOMAwGA1UECwwFQUlTRUMxGTAXBgNVBAMMEEFJU0VDIElEUyBDbGllbnQw
ggEiMA0GCSqGSIb3DQEBAQUAA4IBDwAwggEKAoIBAQDeG/DIALLaFN4tdUdp3iGx
DN+4P2s7uaXBebVe4Bm89lA8hrtR3870GzkMpNIzlOP6EIxMrhnCymRwJAnUjN6F
VBAAfvxk6lle+2DnYjIgJA1jBazipImebDlNz+1byXQveV1xhn2VDObHEHdex/iq
g2sDc0WsHeVSXBdy+ckE+H1RpVHUuMxpDFVPiA//+dUtbRJmM+zQuZp0pbm4jOpS
qEN5GoL8dhNpdB6DBJlKy8p0Fx2pwaqxwTGC64+DNi9NbxSuGNrcDkeieKJpLa1e
pVvohhAQV8w8axYCM5kWp5L8it7OkbrGOCHPnHFtXnryhAieJrXr6cCxyjbOJiZ3
AgMBAAGjggFmMIIBYjAdBgNVHQ4EFgQUCnYsaVEBdSikmKVohIiVcOwNDqUwHwYD
VR0jBBgwFoAUiYuC72su5EAtzlxs93guerB7GR0wCQYDVR0TBAIwADALBgNVHQ8E
BAMCBaAwNwYDVR0fBDAwLjAsoCqgKIYmaHR0cDovL2NybC5haXNlYy5mcmF1bmhv
ZmVyLmRlL2lkcy5jcmwwVAYIKwYBBQUHAQEESDBGMEQGCCsGAQUFBzAChjhodHRw
Oi8vZG93bmxvYWRzLmFpc2VjLmZyYXVuaG9mZXIuZGUvcm9vdGNhY2VydDIwMTYu
Y2VydDAdBgNVHSUEFjAUBggrBgEFBQcDAgYIKwYBBQUHAwEwWgYDVR0RBFMwUYIJ
bG9jYWxob3N0giBpZHNjb25uZWN0b3IuYWlzZWMuZnJhdW5ob2Zlci5kZYcEfwAA
AYcECgECD4cECgECEIcECgECEYcECgECEocECgECEzANBgkqhkiG9w0BAQsFAAOC
AQEAWo8scQ6EODFo69x/X15eylB4/GF1UBbiHhGCn2z+fJsObb9CeXJ5hQ7OlSFo
rIOmYkQU8vUGmQPR9LoG/MoMKoyInreI3N86pKWybi5PCuQjlaYz2/pF5STtb6Ri
CTN8f/9nyfrL/L3QOIyjWCF7LsOSRshU/zFEBDawIP892QXLzdhPvkmhLMtQiBuR
n/HzV9mam9Mf6sQVo9p79IQBsrkLxhv8oy8B3GBbw3yedkws1IQMPUK0SPijcjS0
xUDtun3MilG5jXbrjwEaDRE6skzR0IQ4Iby861JlsjrLfuLw8HnQQJJ0fzb45oX7
EL1nyrYlecnBfnLySILRIeGQAw==
-----END CERTIFICATE-----
