Certificate:
    Data:
        Version: 3 (0x2)
        Serial Number: 2 (0x2)
    Signature Algorithm: sha256WithRSAEncryption
        Issuer: C=DE, O=Fraunhofer, CN=IDS SubCA 2016
        Validity
            Not Before: Feb 15 10:40:17 2017 GMT
            Not After : Feb 15 10:40:17 2019 GMT
        Subject: C=DE, ST=Bayern, L=Muenchen, O=Fraunhofer, OU=AISEC, CN=AISEC IDS Client
        Subject Public Key Info:
            Public Key Algorithm: rsaEncryption
                Public-Key: (2048 bit)
                Modulus:
                    00:ce:03:d3:06:e9:43:23:56:ac:26:13:70:ad:e9:
                    b6:ce:65:1f:1f:02:ff:06:7b:ef:d9:77:7e:b4:12:
                    06:e5:0b:f9:50:6b:e2:d5:85:30:72:9f:b3:0c:9c:
                    f7:ff:a7:63:34:ad:58:5d:e5:c1:ce:09:f5:41:2b:
                    6c:fb:1c:03:9a:61:67:b8:57:54:2f:f3:f9:55:10:
                    90:28:73:14:1b:79:d3:5d:94:ac:54:63:1a:9b:53:
                    80:97:69:b6:f9:91:a0:bb:8c:ee:c2:8c:ea:5b:1b:
                    bd:21:58:ef:a3:c6:c6:c6:4f:c2:1f:8d:a1:1c:79:
                    da:93:62:82:57:bf:f9:c4:8b:9d:ed:50:e4:0e:38:
                    6d:70:1a:16:b3:34:c4:89:93:ad:4d:13:9d:c0:b3:
                    51:05:42:98:5b:c1:8a:a2:09:49:f3:56:51:86:91:
                    f8:ac:9a:c4:a9:04:d6:cd:51:1d:1d:5c:d7:05:76:
                    ce:69:1a:03:ef:e3:03:05:de:d6:c5:1e:3a:7d:47:
                    a3:81:c9:10:58:0e:93:1c:5c:d4:ec:a2:94:6e:72:
                    89:a1:29:79:20:1e:48:97:ec:8d:de:4e:30:b5:6f:
                    92:c1:e6:8a:11:3b:21:57:5f:d9:4c:11:a2:62:a1:
                    68:a0:b2:aa:31:ca:8a:30:79:40:9e:63:92:d3:0a:
                    c7:b3
                Exponent: 65537 (0x10001)
        X509v3 extensions:
            X509v3 Subject Key Identifier: 
                76:76:0E:1C:DF:D0:9C:D7:E9:08:E2:93:2A:0C:D9:DE:D3:CA:2F:FA
            X509v3 Authority Key Identifier: 
                keyid:89:8B:82:EF:6B:2E:E4:40:2D:CE:5C:6C:F7:78:2E:7A:B0:7B:19:1D

            X509v3 Basic Constraints: 
                CA:FALSE
            X509v3 Key Usage: 
                Digital Signature, Key Encipherment
            X509v3 CRL Distribution Points: 

                Full Name:
                  URI:http://crl.aisec.fraunhofer.de/ids.crl

            Authority Information Access: 
                CA Issuers - URI:http://downloads.aisec.fraunhofer.de/rootcacert2016.cert

            X509v3 Extended Key Usage: 
                TLS Web Client Authentication, TLS Web Server Authentication
            X509v3 Subject Alternative Name: 
                DNS:localhost, DNS:idsconnector.aisec.fraunhofer.de, IP Address:127.0.0.1, IP Address:10.1.2.15, IP Address:10.1.2.16, IP Address:10.1.2.17, IP Address:10.1.2.18, IP Address:10.1.2.19
    Signature Algorithm: sha256WithRSAEncryption
         18:fe:4a:4c:82:a8:d6:c2:9b:1f:31:6c:de:32:d9:e7:12:b1:
         f6:b1:88:a2:b5:99:8b:59:38:a4:da:58:1b:a0:f2:fd:4c:95:
         36:10:63:70:f5:5c:82:a5:3d:dd:dd:f4:d9:f9:35:a7:cb:8c:
         e4:41:16:34:b8:2c:35:18:fe:74:d3:df:95:05:a4:0e:44:9f:
         85:37:20:90:fa:53:7e:0d:c3:2e:7a:6c:a1:4d:a4:db:9c:12:
         23:f5:49:e5:c1:95:03:11:20:e4:41:2a:3b:29:09:d9:bb:a9:
         20:d0:20:76:51:e9:76:c0:3d:de:06:e1:86:5d:42:bd:a9:b9:
         8e:dd:d9:23:ce:0a:8f:8c:0c:01:ed:aa:ac:63:1c:bc:27:82:
         03:66:4f:f7:2d:d7:4a:8b:d3:e4:2c:72:a4:46:37:5c:86:a5:
         af:74:97:00:e7:74:40:60:1d:ba:32:6d:94:f8:0e:5a:c8:bc:
         f6:f5:9e:b7:a8:30:ca:54:d8:a3:e5:7c:3e:37:75:1f:fc:10:
         82:47:a6:35:5b:ed:3e:cf:87:bc:2a:3a:e7:24:17:21:6c:96:
         7a:0c:95:59:18:92:6f:2f:7d:82:ae:80:50:50:cb:0a:73:d3:
         4e:10:9e:7a:73:ee:22:21:19:9b:f4:03:98:b9:c4:c4:f2:a3:
         81:94:eb:0d
-----BEGIN CERTIFICATE-----
MIIEjzCCA3egAwIBAgIBAjANBgkqhkiG9w0BAQsFADA7MQswCQYDVQQGEwJERTET
MBEGA1UECgwKRnJhdW5ob2ZlcjEXMBUGA1UEAwwOSURTIFN1YkNBIDIwMTYwHhcN
MTcwMjE1MTA0MDE3WhcNMTkwMjE1MTA0MDE3WjBxMQswCQYDVQQGEwJERTEPMA0G
A1UECAwGQmF5ZXJuMREwDwYDVQQHDAhNdWVuY2hlbjETMBEGA1UECgwKRnJhdW5o
b2ZlcjEOMAwGA1UECwwFQUlTRUMxGTAXBgNVBAMMEEFJU0VDIElEUyBDbGllbnQw
ggEiMA0GCSqGSIb3DQEBAQUAA4IBDwAwggEKAoIBAQDOA9MG6UMjVqwmE3Ct6bbO
ZR8fAv8Ge+/Zd360EgblC/lQa+LVhTByn7MMnPf/p2M0rVhd5cHOCfVBK2z7HAOa
YWe4V1Qv8/lVEJAocxQbedNdlKxUYxqbU4CXabb5kaC7jO7CjOpbG70hWO+jxsbG
T8IfjaEcedqTYoJXv/nEi53tUOQOOG1wGhazNMSJk61NE53As1EFQphbwYqiCUnz
VlGGkfismsSpBNbNUR0dXNcFds5pGgPv4wMF3tbFHjp9R6OByRBYDpMcXNTsopRu
comhKXkgHkiX7I3eTjC1b5LB5ooROyFXX9lMEaJioWigsqoxyooweUCeY5LTCsez
AgMBAAGjggFmMIIBYjAdBgNVHQ4EFgQUdnYOHN/QnNfpCOKTKgzZ3tPKL/owHwYD
VR0jBBgwFoAUiYuC72su5EAtzlxs93guerB7GR0wCQYDVR0TBAIwADALBgNVHQ8E
BAMCBaAwNwYDVR0fBDAwLjAsoCqgKIYmaHR0cDovL2NybC5haXNlYy5mcmF1bmhv
ZmVyLmRlL2lkcy5jcmwwVAYIKwYBBQUHAQEESDBGMEQGCCsGAQUFBzAChjhodHRw
Oi8vZG93bmxvYWRzLmFpc2VjLmZyYXVuaG9mZXIuZGUvcm9vdGNhY2VydDIwMTYu
Y2VydDAdBgNVHSUEFjAUBggrBgEFBQcDAgYIKwYBBQUHAwEwWgYDVR0RBFMwUYIJ
bG9jYWxob3N0giBpZHNjb25uZWN0b3IuYWlzZWMuZnJhdW5ob2Zlci5kZYcEfwAA
AYcECgECD4cECgECEIcECgECEYcECgECEocECgECEzANBgkqhkiG9w0BAQsFAAOC
AQEAGP5KTIKo1sKbHzFs3jLZ5xKx9rGIorWZi1k4pNpYG6Dy/UyVNhBjcPVcgqU9
3d302fk1p8uM5EEWNLgsNRj+dNPflQWkDkSfhTcgkPpTfg3DLnpsoU2k25wSI/VJ
5cGVAxEg5EEqOykJ2bupINAgdlHpdsA93gbhhl1Cvam5jt3ZI84Kj4wMAe2qrGMc
vCeCA2ZP9y3XSovT5CxypEY3XIalr3SXAOd0QGAdujJtlPgOWsi89vWet6gwylTY
o+V8Pjd1H/wQgkemNVvtPs+HvCo65yQXIWyWegyVWRiSby99gq6AUFDLCnPTThCe
enPuIiEZm/QDmLnExPKjgZTrDQ==
-----END CERTIFICATE-----
