Certificate:
    Data:
        Version: 3 (0x2)
        Serial Number: 4 (0x4)
    Signature Algorithm: sha256WithRSAEncryption
        Issuer: C=DE, O=Fraunhofer, CN=IDS SubCA 2016
        Validity
            Not Before: Feb 15 10:54:01 2017 GMT
            Not After : Feb 15 10:54:01 2019 GMT
        Subject: C=DE, ST=Bayern, L=Muenchen, O=Fraunhofer, OU=AISEC, CN=AISEC IDS Client
        Subject Public Key Info:
            Public Key Algorithm: rsaEncryption
                Public-Key: (2048 bit)
                Modulus:
                    00:bd:10:0f:51:77:42:72:56:bf:e5:59:9b:04:20:
                    67:54:32:1f:22:26:60:cd:24:6f:50:f2:0b:c0:ff:
                    7b:da:00:86:7b:54:3b:ec:d6:b4:f4:54:6e:97:38:
                    82:9f:91:2c:1d:bb:14:0a:44:53:06:28:94:be:9e:
                    1a:cc:9d:1d:90:36:57:b3:84:07:ac:bf:4b:f2:69:
                    6c:54:26:6a:24:af:23:06:c3:f4:ae:0d:5e:93:4f:
                    88:1a:97:39:ab:c1:67:29:54:23:54:44:94:58:59:
                    ba:ac:47:50:d7:9a:15:bc:d8:ff:98:51:e3:10:a7:
                    e9:db:1f:58:8d:4a:d8:5a:53:0a:f9:ff:3e:c6:d8:
                    07:ff:23:07:76:1c:71:11:45:f2:8a:09:f7:4a:ee:
                    9d:88:01:8a:d5:3f:e9:6d:7e:dc:4e:a2:7e:d2:bf:
                    69:6c:f7:2a:d9:4d:c8:f6:39:bc:1c:03:5f:4f:85:
                    33:24:1a:db:3d:bb:07:6b:01:d2:d6:4f:f8:1c:02:
                    5c:66:dd:b4:31:b9:3e:a6:43:6c:4f:49:ea:e5:4c:
                    50:7b:07:10:e5:66:42:18:7e:1b:e7:96:f7:ac:f9:
                    f9:59:ef:37:97:ef:bd:b9:ab:fa:8d:64:6a:32:6f:
                    5c:05:96:3b:73:8e:75:6d:4e:a9:d7:c5:e0:b8:6c:
                    6c:8b
                Exponent: 65537 (0x10001)
        X509v3 extensions:
            X509v3 Subject Key Identifier: 
                CD:D4:B2:D4:BD:AA:83:CA:FA:45:26:E9:7D:E7:94:2C:EB:DD:20:87
            X509v3 Authority Key Identifier: 
                keyid:89:8B:82:EF:6B:2E:E4:40:2D:CE:5C:6C:F7:78:2E:7A:B0:7B:19:1D

            X509v3 Basic Constraints: 
                CA:FALSE
            X509v3 Key Usage: 
                Digital Signature, Key Encipherment
            X509v3 CRL Distribution Points: 

                Full Name:
                  URI:http://crl.aisec.fraunhofer.de/ids.crl

            Authority Information Access: 
                CA Issuers - URI:http://downloads.aisec.fraunhofer.de/rootcacert2016.cert

            X509v3 Extended Key Usage: 
                TLS Web Client Authentication, TLS Web Server Authentication
            X509v3 Subject Alternative Name: 
                DNS:localhost, DNS:idsconnector.aisec.fraunhofer.de, IP Address:127.0.0.1, IP Address:10.1.2.15, IP Address:10.1.2.16, IP Address:10.1.2.17, IP Address:10.1.2.18, IP Address:10.1.2.19
    Signature Algorithm: sha256WithRSAEncryption
         04:ad:ff:ad:a0:7b:df:c2:47:d4:ae:69:0f:43:6d:be:93:e5:
         bd:6a:1e:28:87:6e:63:08:a4:6d:59:e1:d2:79:be:84:f7:ca:
         a5:87:b9:91:9b:4b:58:77:8d:2a:a0:32:fe:6f:1e:3e:0d:ff:
         af:40:ba:94:7f:13:5d:8c:22:03:f5:de:13:3c:85:f1:72:59:
         eb:03:e7:bc:95:4f:ac:29:a9:c4:ce:db:fe:38:6d:b4:7d:dc:
         99:7c:c2:f9:f4:c3:e6:9a:cc:13:f9:15:ce:5a:4c:b1:e9:85:
         29:32:a0:ed:2f:3d:ce:91:2e:d3:ba:7d:42:7e:74:3d:16:fc:
         ff:4a:03:80:d6:e2:be:87:84:6b:d5:ff:1c:15:d2:45:9e:b4:
         c8:8f:ce:ed:b6:3b:92:52:36:91:18:8d:fb:2c:d0:20:4a:ab:
         09:32:b4:c7:98:a8:de:57:73:2b:4f:34:cf:62:ac:2f:2e:59:
         06:13:9e:2d:42:0f:8c:c1:63:f7:44:87:ad:45:00:b7:26:95:
         ce:80:87:96:d0:f9:69:21:cc:cd:6e:30:92:c8:76:93:a1:1a:
         09:eb:90:87:c8:2c:23:35:cb:14:6d:7d:ae:d3:f9:50:19:db:
         30:4e:93:ab:0e:ab:ab:fe:3c:db:39:52:34:f8:2f:87:b0:f7:
         11:e4:9a:34
-----BEGIN CERTIFICATE-----
MIIEjzCCA3egAwIBAgIBBDANBgkqhkiG9w0BAQsFADA7MQswCQYDVQQGEwJERTET
MBEGA1UECgwKRnJhdW5ob2ZlcjEXMBUGA1UEAwwOSURTIFN1YkNBIDIwMTYwHhcN
MTcwMjE1MTA1NDAxWhcNMTkwMjE1MTA1NDAxWjBxMQswCQYDVQQGEwJERTEPMA0G
A1UECAwGQmF5ZXJuMREwDwYDVQQHDAhNdWVuY2hlbjETMBEGA1UECgwKRnJhdW5o
b2ZlcjEOMAwGA1UECwwFQUlTRUMxGTAXBgNVBAMMEEFJU0VDIElEUyBDbGllbnQw
ggEiMA0GCSqGSIb3DQEBAQUAA4IBDwAwggEKAoIBAQC9EA9Rd0JyVr/lWZsEIGdU
Mh8iJmDNJG9Q8gvA/3vaAIZ7VDvs1rT0VG6XOIKfkSwduxQKRFMGKJS+nhrMnR2Q
NlezhAesv0vyaWxUJmokryMGw/SuDV6TT4galzmrwWcpVCNURJRYWbqsR1DXmhW8
2P+YUeMQp+nbH1iNSthaUwr5/z7G2Af/Iwd2HHERRfKKCfdK7p2IAYrVP+ltftxO
on7Sv2ls9yrZTcj2ObwcA19PhTMkGts9uwdrAdLWT/gcAlxm3bQxuT6mQ2xPSerl
TFB7BxDlZkIYfhvnlves+flZ7zeX7725q/qNZGoyb1wFljtzjnVtTqnXxeC4bGyL
AgMBAAGjggFmMIIBYjAdBgNVHQ4EFgQUzdSy1L2qg8r6RSbpfeeULOvdIIcwHwYD
VR0jBBgwFoAUiYuC72su5EAtzlxs93guerB7GR0wCQYDVR0TBAIwADALBgNVHQ8E
BAMCBaAwNwYDVR0fBDAwLjAsoCqgKIYmaHR0cDovL2NybC5haXNlYy5mcmF1bmhv
ZmVyLmRlL2lkcy5jcmwwVAYIKwYBBQUHAQEESDBGMEQGCCsGAQUFBzAChjhodHRw
Oi8vZG93bmxvYWRzLmFpc2VjLmZyYXVuaG9mZXIuZGUvcm9vdGNhY2VydDIwMTYu
Y2VydDAdBgNVHSUEFjAUBggrBgEFBQcDAgYIKwYBBQUHAwEwWgYDVR0RBFMwUYIJ
bG9jYWxob3N0giBpZHNjb25uZWN0b3IuYWlzZWMuZnJhdW5ob2Zlci5kZYcEfwAA
AYcECgECD4cECgECEIcECgECEYcECgECEocECgECEzANBgkqhkiG9w0BAQsFAAOC
AQEABK3/raB738JH1K5pD0NtvpPlvWoeKIduYwikbVnh0nm+hPfKpYe5kZtLWHeN
KqAy/m8ePg3/r0C6lH8TXYwiA/XeEzyF8XJZ6wPnvJVPrCmpxM7b/jhttH3cmXzC
+fTD5prME/kVzlpMsemFKTKg7S89zpEu07p9Qn50PRb8/0oDgNbivoeEa9X/HBXS
RZ60yI/O7bY7klI2kRiN+yzQIEqrCTK0x5io3ldzK080z2KsLy5ZBhOeLUIPjMFj
90SHrUUAtyaVzoCHltD5aSHMzW4wksh2k6EaCeuQh8gsIzXLFG19rtP5UBnbME6T
qw6rq/482zlSNPgvh7D3EeSaNA==
-----END CERTIFICATE-----
