Certificate:
    Data:
        Version: 3 (0x2)
        Serial Number: 7 (0x7)
    Signature Algorithm: sha256WithRSAEncryption
        Issuer: C=DE, O=Fraunhofer, CN=IDS SubCA 2016
        Validity
            Not Before: Feb 15 11:48:51 2017 GMT
            Not After : Feb 15 11:48:51 2019 GMT
        Subject: C=DE, ST=Bayern, L=Muenchen, O=Fraunhofer, OU=AISEC, CN=AISEC IDS Client
        Subject Public Key Info:
            Public Key Algorithm: rsaEncryption
                Public-Key: (2048 bit)
                Modulus:
                    00:b1:b0:1a:4c:3d:5a:37:5a:72:9b:a6:3f:4f:44:
                    0c:54:5a:6b:03:c0:52:9b:23:9c:ce:44:86:38:98:
                    63:ea:81:03:a9:8a:38:4c:82:6b:11:56:98:2a:36:
                    34:84:3f:c7:cf:18:ea:3f:d9:c0:19:cc:e4:bf:c2:
                    49:e5:08:a7:b7:f3:58:ab:f4:e8:43:83:6a:4e:84:
                    11:4c:a1:8b:b1:09:0f:ce:1f:cb:1a:73:fa:68:b9:
                    d0:fd:d1:ca:69:4a:55:52:41:f1:a1:70:1d:88:c0:
                    58:9b:24:e2:5f:f6:96:eb:03:db:91:c6:27:8b:12:
                    45:53:a3:f4:61:9c:51:ba:50:47:37:60:2b:dc:d4:
                    18:58:57:7a:dc:16:f4:ce:ea:22:a3:48:3b:f0:a5:
                    42:52:34:05:da:1e:5e:85:da:32:3a:44:e7:38:9b:
                    dc:ba:24:dd:a8:05:61:db:8d:7c:79:25:34:bf:64:
                    33:88:97:70:e8:5d:65:f2:70:c1:ad:e3:2a:0a:41:
                    bf:f8:9f:15:7f:c4:d5:7f:f7:88:e1:92:3a:7d:34:
                    4e:4b:ee:36:9b:5e:06:1a:07:26:3a:78:23:78:e6:
                    5f:42:1f:e9:e3:80:02:73:a9:84:56:68:47:1a:68:
                    97:99:f7:4d:ad:29:2b:f3:79:2d:02:58:0b:a7:2b:
                    f9:5b
                Exponent: 65537 (0x10001)
        X509v3 extensions:
            X509v3 Subject Key Identifier: 
                AB:11:36:B5:A6:D9:07:02:0C:37:9D:82:A9:43:C5:19:06:76:C1:06
            X509v3 Authority Key Identifier: 
                keyid:89:8B:82:EF:6B:2E:E4:40:2D:CE:5C:6C:F7:78:2E:7A:B0:7B:19:1D

            X509v3 Basic Constraints: 
                CA:FALSE
            X509v3 Key Usage: 
                Digital Signature, Key Encipherment
            X509v3 CRL Distribution Points: 

                Full Name:
                  URI:http://crl.aisec.fraunhofer.de/ids.crl

            Authority Information Access: 
                CA Issuers - URI:http://downloads.aisec.fraunhofer.de/rootcacert2016.cert

            X509v3 Extended Key Usage: 
                TLS Web Client Authentication, TLS Web Server Authentication
            X509v3 Subject Alternative Name: 
                DNS:localhost, DNS:idsconnector.aisec.fraunhofer.de, IP Address:127.0.0.1, IP Address:10.1.2.15, IP Address:10.1.2.16, IP Address:10.1.2.17, IP Address:10.1.2.18, IP Address:10.1.2.19, IP Address:10.1.2.20, IP Address:10.1.2.21
    Signature Algorithm: sha256WithRSAEncryption
         62:e0:84:9a:e4:cb:93:c1:76:a2:99:88:30:5e:1d:8c:53:7c:
         e2:19:96:c7:d8:04:cb:32:1b:a5:53:23:0e:b4:1a:2d:c3:97:
         9c:83:53:99:c6:bb:39:5c:b4:10:22:19:90:6d:e2:fe:f4:38:
         a1:dc:c4:08:fc:02:e1:c2:71:7a:4d:dd:a8:2a:23:7d:42:bb:
         f6:b9:ff:96:ca:87:19:a4:7f:c8:db:3c:13:50:a3:30:d8:76:
         12:b6:47:43:46:96:76:5e:d2:86:ed:f8:cb:c2:d9:f7:91:55:
         3c:20:b9:d2:e1:63:c9:5c:6d:0d:5d:7d:10:95:18:fb:79:8c:
         f5:c6:51:5a:ec:de:13:16:87:27:7a:7b:60:55:5c:4d:af:2e:
         e3:a7:b2:88:12:96:32:8f:8c:46:50:1b:79:2e:26:cb:ad:32:
         63:6d:a8:5b:c5:f2:92:a8:62:31:90:f9:6a:f9:d1:8c:6d:eb:
         15:03:9d:df:e7:8b:a0:99:d9:c1:8e:ff:45:d9:3a:5f:f0:7d:
         86:40:2e:78:7b:16:2f:29:5b:7a:b9:a4:75:a7:5b:b9:86:84:
         9a:40:b5:fb:7b:ee:98:11:33:0a:a0:fe:26:3b:56:57:5e:a8:
         83:9c:9c:3d:e3:da:20:fc:d4:3e:c3:cf:5d:33:77:fc:2e:8c:
         1b:12:0a:28
-----BEGIN CERTIFICATE-----
MIIEmzCCA4OgAwIBAgIBBzANBgkqhkiG9w0BAQsFADA7MQswCQYDVQQGEwJERTET
MBEGA1UECgwKRnJhdW5ob2ZlcjEXMBUGA1UEAwwOSURTIFN1YkNBIDIwMTYwHhcN
MTcwMjE1MTE0ODUxWhcNMTkwMjE1MTE0ODUxWjBxMQswCQYDVQQGEwJERTEPMA0G
A1UECAwGQmF5ZXJuMREwDwYDVQQHDAhNdWVuY2hlbjETMBEGA1UECgwKRnJhdW5o
b2ZlcjEOMAwGA1UECwwFQUlTRUMxGTAXBgNVBAMMEEFJU0VDIElEUyBDbGllbnQw
ggEiMA0GCSqGSIb3DQEBAQUAA4IBDwAwggEKAoIBAQCxsBpMPVo3WnKbpj9PRAxU
WmsDwFKbI5zORIY4mGPqgQOpijhMgmsRVpgqNjSEP8fPGOo/2cAZzOS/wknlCKe3
81ir9OhDg2pOhBFMoYuxCQ/OH8sac/poudD90cppSlVSQfGhcB2IwFibJOJf9pbr
A9uRxieLEkVTo/RhnFG6UEc3YCvc1BhYV3rcFvTO6iKjSDvwpUJSNAXaHl6F2jI6
ROc4m9y6JN2oBWHbjXx5JTS/ZDOIl3DoXWXycMGt4yoKQb/4nxV/xNV/94jhkjp9
NE5L7jabXgYaByY6eCN45l9CH+njgAJzqYRWaEcaaJeZ902tKSvzeS0CWAunK/lb
AgMBAAGjggFyMIIBbjAdBgNVHQ4EFgQUqxE2tabZBwIMN52CqUPFGQZ2wQYwHwYD
VR0jBBgwFoAUiYuC72su5EAtzlxs93guerB7GR0wCQYDVR0TBAIwADALBgNVHQ8E
BAMCBaAwNwYDVR0fBDAwLjAsoCqgKIYmaHR0cDovL2NybC5haXNlYy5mcmF1bmhv
ZmVyLmRlL2lkcy5jcmwwVAYIKwYBBQUHAQEESDBGMEQGCCsGAQUFBzAChjhodHRw
Oi8vZG93bmxvYWRzLmFpc2VjLmZyYXVuaG9mZXIuZGUvcm9vdGNhY2VydDIwMTYu
Y2VydDAdBgNVHSUEFjAUBggrBgEFBQcDAgYIKwYBBQUHAwEwZgYDVR0RBF8wXYIJ
bG9jYWxob3N0giBpZHNjb25uZWN0b3IuYWlzZWMuZnJhdW5ob2Zlci5kZYcEfwAA
AYcECgECD4cECgECEIcECgECEYcECgECEocECgECE4cECgECFIcECgECFTANBgkq
hkiG9w0BAQsFAAOCAQEAYuCEmuTLk8F2opmIMF4djFN84hmWx9gEyzIbpVMjDrQa
LcOXnINTmca7OVy0ECIZkG3i/vQ4odzECPwC4cJxek3dqCojfUK79rn/lsqHGaR/
yNs8E1CjMNh2ErZHQ0aWdl7Shu34y8LZ95FVPCC50uFjyVxtDV19EJUY+3mM9cZR
WuzeExaHJ3p7YFVcTa8u46eyiBKWMo+MRlAbeS4my60yY22oW8XykqhiMZD5avnR
jG3rFQOd3+eLoJnZwY7/Rdk6X/B9hkAueHsWLylbermkdadbuYaEmkC1+3vumBEz
CqD+JjtWV16og5ycPePaIPzUPsPPXTN3/C6MGxIKKA==
-----END CERTIFICATE-----
