Certificate:
    Data:
        Version: 3 (0x2)
        Serial Number: 9 (0x9)
    Signature Algorithm: sha256WithRSAEncryption
        Issuer: C=DE, O=Fraunhofer, CN=IDS SubCA 2016
        Validity
            Not Before: Feb 15 12:21:04 2017 GMT
            Not After : Feb 15 12:21:04 2019 GMT
        Subject: C=DE, ST=Bayern, L=Muenchen, O=Fraunhofer, OU=AISEC, CN=AISEC IDS Client
        Subject Public Key Info:
            Public Key Algorithm: rsaEncryption
                Public-Key: (2048 bit)
                Modulus:
                    00:cd:0a:c5:5d:d9:ec:cd:c4:88:f9:b3:54:23:b1:
                    35:17:f0:46:54:a2:23:1e:ce:62:23:a6:e2:cb:f6:
                    82:f6:a1:25:36:5d:af:fc:59:4c:fb:ba:a4:7b:1f:
                    e9:14:55:cb:d3:76:6c:97:b3:4b:54:d5:9f:7b:b8:
                    10:34:e2:01:00:ba:05:87:c3:a3:42:f7:9a:1c:03:
                    cf:5f:35:0f:2c:89:91:f7:c9:8c:e9:9a:c4:2c:0b:
                    2f:40:c8:8e:13:39:80:ed:37:e7:fa:13:b8:f3:dc:
                    60:58:61:7e:ff:cf:41:0d:7e:0a:c4:0c:04:73:37:
                    fc:33:2c:84:91:27:d2:81:c5:63:45:94:00:67:26:
                    6f:b8:d8:22:0d:83:b2:4b:55:0a:83:8a:e0:a1:1d:
                    80:bb:76:6c:57:b8:ce:0c:ef:a5:a8:69:76:08:25:
                    13:a1:63:c1:03:3e:39:71:70:fd:c9:f2:e8:97:a2:
                    e5:6c:c5:18:f4:45:6a:33:25:db:98:56:71:68:e9:
                    a7:7b:99:a2:a3:8e:46:8c:68:5e:bd:6c:c2:e4:0a:
                    66:49:db:af:07:57:ab:57:af:17:1f:f7:a3:11:01:
                    9b:37:f1:ad:75:29:a4:5c:13:67:74:21:2e:90:a3:
                    63:ad:1b:4e:71:e5:29:40:53:1e:b8:31:ea:c9:14:
                    96:4d
                Exponent: 65537 (0x10001)
        X509v3 extensions:
            X509v3 Subject Key Identifier: 
                B1:5B:E0:F3:B0:3C:39:C8:35:57:EF:B2:1A:4B:40:96:7A:40:5C:82
            X509v3 Authority Key Identifier: 
                keyid:89:8B:82:EF:6B:2E:E4:40:2D:CE:5C:6C:F7:78:2E:7A:B0:7B:19:1D

            X509v3 Basic Constraints: 
                CA:FALSE
            X509v3 Key Usage: 
                Digital Signature, Key Encipherment
            X509v3 CRL Distribution Points: 

                Full Name:
                  URI:http://crl.aisec.fraunhofer.de/ids.crl

            Authority Information Access: 
                CA Issuers - URI:http://downloads.aisec.fraunhofer.de/rootcacert2016.cert

            X509v3 Extended Key Usage: 
                TLS Web Client Authentication, TLS Web Server Authentication
            X509v3 Subject Alternative Name: 
                DNS:localhost, DNS:idsconnector.aisec.fraunhofer.de, IP Address:0.0.0.0
    Signature Algorithm: sha256WithRSAEncryption
         7a:c2:05:14:14:5b:c3:a9:a5:4f:d0:63:be:bd:e8:a4:b5:d3:
         bc:f6:ed:b1:74:6e:5c:b1:80:3a:03:0c:69:1e:a7:57:17:c8:
         33:ab:62:e7:e5:39:8f:78:f0:2a:c7:72:f1:57:25:6d:2a:29:
         d7:a4:14:67:7f:55:db:c3:99:8c:13:8e:29:33:65:80:9d:2c:
         e8:d4:63:76:6b:91:da:50:2d:0c:a2:97:b8:03:80:32:3d:9b:
         ce:31:ba:d9:7a:b9:c5:e3:53:dd:15:54:c6:84:9d:1c:e5:87:
         06:94:2d:bc:97:e5:8f:a9:d6:66:5f:55:5c:84:0d:3e:ea:f1:
         36:ff:92:f4:4e:68:3d:bf:3c:07:53:96:38:6f:30:b0:29:47:
         0d:59:b8:e4:f0:74:b0:60:a9:9c:b4:fd:6e:17:0d:47:b3:de:
         f2:c7:2a:a2:c8:66:c9:8b:96:da:4b:c6:b2:fd:72:09:1c:f4:
         51:7d:2c:9e:de:f4:d5:73:d3:6c:f4:98:02:a9:05:a8:4a:b5:
         31:dd:3a:b6:db:a2:41:5d:0d:94:3d:8e:b6:f7:91:cb:66:02:
         e3:fa:c7:05:e0:02:33:b1:f6:dd:c8:ce:14:0b:9f:8d:0c:67:
         76:a0:93:9e:8e:b1:bb:f9:00:b3:2f:e0:26:02:47:2c:88:e4:
         54:ff:3b:f9
-----BEGIN CERTIFICATE-----
MIIEcTCCA1mgAwIBAgIBCTANBgkqhkiG9w0BAQsFADA7MQswCQYDVQQGEwJERTET
MBEGA1UECgwKRnJhdW5ob2ZlcjEXMBUGA1UEAwwOSURTIFN1YkNBIDIwMTYwHhcN
MTcwMjE1MTIyMTA0WhcNMTkwMjE1MTIyMTA0WjBxMQswCQYDVQQGEwJERTEPMA0G
A1UECAwGQmF5ZXJuMREwDwYDVQQHDAhNdWVuY2hlbjETMBEGA1UECgwKRnJhdW5o
b2ZlcjEOMAwGA1UECwwFQUlTRUMxGTAXBgNVBAMMEEFJU0VDIElEUyBDbGllbnQw
ggEiMA0GCSqGSIb3DQEBAQUAA4IBDwAwggEKAoIBAQDNCsVd2ezNxIj5s1QjsTUX
8EZUoiMezmIjpuLL9oL2oSU2Xa/8WUz7uqR7H+kUVcvTdmyXs0tU1Z97uBA04gEA
ugWHw6NC95ocA89fNQ8siZH3yYzpmsQsCy9AyI4TOYDtN+f6E7jz3GBYYX7/z0EN
fgrEDARzN/wzLISRJ9KBxWNFlABnJm+42CINg7JLVQqDiuChHYC7dmxXuM4M76Wo
aXYIJROhY8EDPjlxcP3J8uiXouVsxRj0RWozJduYVnFo6ad7maKjjkaMaF69bMLk
CmZJ268HV6tXrxcf96MRAZs38a11KaRcE2d0IS6Qo2OtG05x5SlAUx64MerJFJZN
AgMBAAGjggFIMIIBRDAdBgNVHQ4EFgQUsVvg87A8Ocg1V++yGktAlnpAXIIwHwYD
VR0jBBgwFoAUiYuC72su5EAtzlxs93guerB7GR0wCQYDVR0TBAIwADALBgNVHQ8E
BAMCBaAwNwYDVR0fBDAwLjAsoCqgKIYmaHR0cDovL2NybC5haXNlYy5mcmF1bmhv
ZmVyLmRlL2lkcy5jcmwwVAYIKwYBBQUHAQEESDBGMEQGCCsGAQUFBzAChjhodHRw
Oi8vZG93bmxvYWRzLmFpc2VjLmZyYXVuaG9mZXIuZGUvcm9vdGNhY2VydDIwMTYu
Y2VydDAdBgNVHSUEFjAUBggrBgEFBQcDAgYIKwYBBQUHAwEwPAYDVR0RBDUwM4IJ
bG9jYWxob3N0giBpZHNjb25uZWN0b3IuYWlzZWMuZnJhdW5ob2Zlci5kZYcEAAAA
ADANBgkqhkiG9w0BAQsFAAOCAQEAesIFFBRbw6mlT9Bjvr3opLXTvPbtsXRuXLGA
OgMMaR6nVxfIM6ti5+U5j3jwKsdy8VclbSop16QUZ39V28OZjBOOKTNlgJ0s6NRj
dmuR2lAtDKKXuAOAMj2bzjG62Xq5xeNT3RVUxoSdHOWHBpQtvJflj6nWZl9VXIQN
PurxNv+S9E5oPb88B1OWOG8wsClHDVm45PB0sGCpnLT9bhcNR7Pe8scqoshmyYuW
2kvGsv1yCRz0UX0snt701XPTbPSYAqkFqEq1Md06ttuiQV0NlD2OtveRy2YC4/rH
BeACM7H23cjOFAufjQxndqCTno6xu/kAsy/gJgJHLIjkVP87+Q==
-----END CERTIFICATE-----
