Certificate:
    Data:
        Version: 3 (0x2)
        Serial Number: 3 (0x3)
    Signature Algorithm: sha256WithRSAEncryption
        Issuer: C=DE, O=Fraunhofer, CN=IDS SubCA 2016
        Validity
            Not Before: Feb 15 10:53:39 2017 GMT
            Not After : Feb 15 10:53:39 2019 GMT
        Subject: C=DE, ST=Bayern, L=Muenchen, O=Fraunhofer, OU=AISEC, CN=AISEC IDS Client
        Subject Public Key Info:
            Public Key Algorithm: rsaEncryption
                Public-Key: (2048 bit)
                Modulus:
                    00:c3:f9:1c:2b:cb:b5:40:da:a1:9d:04:20:64:77:
                    d2:f1:5a:ae:29:94:a0:6d:02:dc:92:be:c4:82:51:
                    a4:87:98:45:41:52:ee:aa:c0:af:8d:fe:13:03:20:
                    63:e1:18:2d:b4:83:fd:d0:56:64:84:c3:3e:41:68:
                    85:18:30:b5:9c:29:43:67:8b:70:6b:f2:0b:ee:2a:
                    cc:44:5b:98:7a:88:ae:cf:fc:5b:02:4d:15:57:06:
                    63:1a:11:ab:99:81:61:e9:d5:ff:bd:04:c2:6c:ae:
                    c4:14:6b:a0:8a:88:f9:c8:54:ab:8f:56:49:1e:95:
                    cf:70:84:b6:b8:fb:fe:aa:f6:90:28:a0:e0:71:23:
                    44:c3:a4:75:85:fb:c0:06:4e:cb:73:50:13:15:f6:
                    7c:40:31:06:09:12:9d:ab:06:fa:ec:d0:6a:46:72:
                    4f:2a:62:7b:bc:13:0d:29:d5:ce:88:27:98:25:25:
                    5b:c0:41:57:49:b1:e3:95:e0:91:dc:8b:5f:9f:ae:
                    34:77:e1:40:ec:92:03:d8:81:56:26:bf:f0:c1:ae:
                    84:ba:7a:2a:0e:a5:b3:63:55:49:9c:dd:2d:2b:94:
                    13:a8:05:ef:aa:79:5c:9e:18:d0:34:67:f8:f7:aa:
                    79:e3:b9:83:ea:33:e7:08:94:5c:12:db:9b:bc:cc:
                    af:63
                Exponent: 65537 (0x10001)
        X509v3 extensions:
            X509v3 Subject Key Identifier: 
                18:DE:0F:BE:24:E7:24:2C:92:F6:BB:35:21:E4:08:15:47:11:8A:0D
            X509v3 Authority Key Identifier: 
                keyid:89:8B:82:EF:6B:2E:E4:40:2D:CE:5C:6C:F7:78:2E:7A:B0:7B:19:1D

            X509v3 Basic Constraints: 
                CA:FALSE
            X509v3 Key Usage: 
                Digital Signature, Key Encipherment
            X509v3 CRL Distribution Points: 

                Full Name:
                  URI:http://crl.aisec.fraunhofer.de/ids.crl

            Authority Information Access: 
                CA Issuers - URI:http://downloads.aisec.fraunhofer.de/rootcacert2016.cert

            X509v3 Extended Key Usage: 
                TLS Web Client Authentication, TLS Web Server Authentication
            X509v3 Subject Alternative Name: 
                DNS:localhost, DNS:idsconnector.aisec.fraunhofer.de, IP Address:127.0.0.1, IP Address:10.1.2.15, IP Address:10.1.2.16, IP Address:10.1.2.17, IP Address:10.1.2.18, IP Address:10.1.2.19
    Signature Algorithm: sha256WithRSAEncryption
         77:81:53:e3:26:5f:a1:c0:57:66:31:6b:5f:e9:80:26:a8:ae:
         8d:4a:1a:cd:5f:75:16:a6:01:d3:ac:53:f8:67:5a:40:7f:4e:
         3d:6a:32:a3:7e:73:58:4b:bb:d4:52:44:3b:91:f8:f6:28:3f:
         db:85:61:ff:56:96:48:46:bd:24:58:44:c0:d1:19:fc:8a:b3:
         b3:5e:a9:69:83:7a:b3:03:dc:79:bb:b7:58:67:92:48:ed:be:
         d3:47:a6:c7:2c:85:56:5d:c2:88:2d:19:1a:17:29:e5:3c:9e:
         36:63:64:6b:7f:1e:c9:16:3b:4c:0b:e5:fd:6a:aa:6e:ab:96:
         22:75:86:2f:29:8d:93:d5:c5:ba:9f:6e:e8:10:09:2a:eb:5a:
         19:6e:49:c1:28:43:a6:25:87:22:70:bb:fc:0e:10:e0:5f:f7:
         ab:35:80:c6:b4:73:b6:ca:d0:68:21:5c:b7:0a:35:c4:8f:63:
         22:2f:2b:51:24:36:24:77:80:e4:4f:a5:72:8a:2e:19:74:8e:
         dd:c5:34:7b:85:2e:e4:f8:86:0f:73:95:d9:53:0b:be:f1:9c:
         37:f5:59:ab:1e:1a:2b:42:df:56:46:c8:28:7b:76:af:9a:25:
         66:1c:1b:17:b8:1c:3f:f5:93:69:bb:70:7f:81:c4:78:ce:f6:
         83:64:cb:63
-----BEGIN CERTIFICATE-----
MIIEjzCCA3egAwIBAgIBAzANBgkqhkiG9w0BAQsFADA7MQswCQYDVQQGEwJERTET
MBEGA1UECgwKRnJhdW5ob2ZlcjEXMBUGA1UEAwwOSURTIFN1YkNBIDIwMTYwHhcN
MTcwMjE1MTA1MzM5WhcNMTkwMjE1MTA1MzM5WjBxMQswCQYDVQQGEwJERTEPMA0G
A1UECAwGQmF5ZXJuMREwDwYDVQQHDAhNdWVuY2hlbjETMBEGA1UECgwKRnJhdW5o
b2ZlcjEOMAwGA1UECwwFQUlTRUMxGTAXBgNVBAMMEEFJU0VDIElEUyBDbGllbnQw
ggEiMA0GCSqGSIb3DQEBAQUAA4IBDwAwggEKAoIBAQDD+Rwry7VA2qGdBCBkd9Lx
Wq4plKBtAtySvsSCUaSHmEVBUu6qwK+N/hMDIGPhGC20g/3QVmSEwz5BaIUYMLWc
KUNni3Br8gvuKsxEW5h6iK7P/FsCTRVXBmMaEauZgWHp1f+9BMJsrsQUa6CKiPnI
VKuPVkkelc9whLa4+/6q9pAooOBxI0TDpHWF+8AGTstzUBMV9nxAMQYJEp2rBvrs
0GpGck8qYnu8Ew0p1c6IJ5glJVvAQVdJseOV4JHci1+frjR34UDskgPYgVYmv/DB
roS6eioOpbNjVUmc3S0rlBOoBe+qeVyeGNA0Z/j3qnnjuYPqM+cIlFwS25u8zK9j
AgMBAAGjggFmMIIBYjAdBgNVHQ4EFgQUGN4PviTnJCyS9rs1IeQIFUcRig0wHwYD
VR0jBBgwFoAUiYuC72su5EAtzlxs93guerB7GR0wCQYDVR0TBAIwADALBgNVHQ8E
BAMCBaAwNwYDVR0fBDAwLjAsoCqgKIYmaHR0cDovL2NybC5haXNlYy5mcmF1bmhv
ZmVyLmRlL2lkcy5jcmwwVAYIKwYBBQUHAQEESDBGMEQGCCsGAQUFBzAChjhodHRw
Oi8vZG93bmxvYWRzLmFpc2VjLmZyYXVuaG9mZXIuZGUvcm9vdGNhY2VydDIwMTYu
Y2VydDAdBgNVHSUEFjAUBggrBgEFBQcDAgYIKwYBBQUHAwEwWgYDVR0RBFMwUYIJ
bG9jYWxob3N0giBpZHNjb25uZWN0b3IuYWlzZWMuZnJhdW5ob2Zlci5kZYcEfwAA
AYcECgECD4cECgECEIcECgECEYcECgECEocECgECEzANBgkqhkiG9w0BAQsFAAOC
AQEAd4FT4yZfocBXZjFrX+mAJqiujUoazV91FqYB06xT+GdaQH9OPWoyo35zWEu7
1FJEO5H49ig/24Vh/1aWSEa9JFhEwNEZ/Iqzs16paYN6swPcebu3WGeSSO2+00em
xyyFVl3CiC0ZGhcp5TyeNmNka38eyRY7TAvl/WqqbquWInWGLymNk9XFup9u6BAJ
KutaGW5JwShDpiWHInC7/A4Q4F/3qzWAxrRztsrQaCFctwo1xI9jIi8rUSQ2JHeA
5E+lcoouGXSO3cU0e4Uu5PiGD3OV2VMLvvGcN/VZqx4aK0LfVkbIKHt2r5olZhwb
F7gcP/WTabtwf4HEeM72g2TLYw==
-----END CERTIFICATE-----
