-----BEGIN CERTIFICATE-----
MIIDXTCCAkWgAwIBAgIJAKM6MdFGGEfEMA0GCSqGSIb3DQEBBQUAMD0xCzAJBgNV
BAYTAkRFMRMwEQYDVQQKDApGcmF1bmhvZmVyMRkwFwYDVQQDDBBJRFMgUm9vdCBD
QSAyMDE2MB4XDTE2MTAyNDE0NDI0NloXDTM2MTAxOTE0NDI0NlowPTELMAkGA1UE
BhMCREUxEzARBgNVBAoMCkZyYXVuaG9mZXIxGTAXBgNVBAMMEElEUyBSb290IENB
IDIwMTYwggEiMA0GCSqGSIb3DQEBAQUAA4IBDwAwggEKAoIBAQC6+EWmaJcZ1Bq4
w2evwZR2Zwuf1ls5x9ydDissmuZnrrgxqggx4dWeUmppvGUkxcisZEbWdX0+Sm0Z
ymirASBgMJyMY0ZuYK4raHqj+1YaapLdnyzNX8LaWBpPsc/y2cuJ4kmcdjqkupC1
mchaCDsH/Yych+17gWAQSYKdKoUG1DxOLg8XJFrIeXUh8kESmDNaW93ExA2veLYR
1/2o3MJm1bkDencD7PA7vQUx5PzOeMGgDEDkqgIjA1rI6baRWEog9zNzphkfZUBI
MfoVADbyNvNQWqZ6FY95+QcEKWb4K1SRzPxp0xylDmg2QSXzdf6e2H6NrdlTghvp
c2IPSw6BAgMBAAGjYDBeMB0GA1UdDgQWBBRJG1kpGqADofEosedeo1Kr1keFKDAf
BgNVHSMEGDAWgBRJG1kpGqADofEosedeo1Kr1keFKDAPBgNVHRMBAf8EBTADAQH/
MAsGA1UdDwQEAwIBRjANBgkqhkiG9w0BAQUFAAOCAQEAkR0q+w/BlQzyLBi6BSRV
YRGiY7WUQMszCKn3XJVIJ0dHnv5O1a4GiCTjKE2SOV64GBQMxohMxh+meVNjzxjq
PGhwIQ/Wyr9BcyYYFWmBxQ4VZjL++I4JSvJxG6vc4NFaoJX/YWuG5h6Aoe5v1IOD
fNPYSpSw+TDMSIkMYrzp+YSg5UrFy702LbjUteRe1Qx+EfOZKGc9ET9xDh2suF4B
N3a7QfdxRdNWuaajzRMO/2JVlTOjts6AcHaZ2ZrMjyKdVzlbnCVAX7T0LEC4UJUQ
yEetZDDGcU4+wLqT9cEbtjkIQunCtkXBcISk+TcN5Dj3Cl3lIQyNKj0Fu7MDUpvM
HA==
-----END CERTIFICATE-----
Certificate:
    Data:
        Version: 3 (0x2)
        Serial Number: 1 (0x1)
    Signature Algorithm: sha256WithRSAEncryption
        Issuer: C=DE, O=Fraunhofer, CN=IDS Root CA 2016
        Validity
            Not Before: Oct 24 14:42:47 2016 GMT
            Not After : Oct 22 14:42:47 2024 GMT
        Subject: C=DE, O=Fraunhofer, CN=IDS SubCA 2016
        Subject Public Key Info:
            Public Key Algorithm: rsaEncryption
                Public-Key: (2048 bit)
                Modulus:
                    00:e3:70:27:6c:b5:98:bb:9a:ca:a3:34:36:10:64:
                    ed:23:63:4a:ef:18:07:4e:92:60:c0:1c:cd:51:ed:
                    d9:1d:6f:1b:29:8b:99:19:43:71:b6:1d:fc:97:3f:
                    05:fc:50:9d:09:78:7e:c7:ad:c1:a2:4e:b3:67:06:
                    df:4f:6b:d6:05:ee:b6:3b:96:63:b7:2c:60:fd:14:
                    05:b4:7f:97:5c:6d:16:e4:ab:2e:c1:27:b3:9c:e7:
                    e1:b9:48:3c:8f:73:43:af:dd:7f:ce:d2:40:3b:aa:
                    e6:31:a2:77:5f:be:9b:56:b3:e4:64:bf:e8:28:c9:
                    88:33:43:50:9c:a4:b0:1b:67:23:23:5b:40:53:3c:
                    63:1e:02:7d:15:b0:46:f1:41:a8:65:68:ae:7b:89:
                    b4:16:46:ae:2a:9e:2f:a9:a4:b3:70:6e:e3:77:4f:
                    e0:ac:a4:a9:6f:78:59:31:73:8a:8f:44:29:83:fb:
                    9b:b1:66:0c:55:f1:de:fe:4f:ac:69:e5:9f:b4:f2:
                    57:8b:53:66:2f:15:dd:5e:32:b5:f9:cf:eb:c7:70:
                    2d:9a:38:ca:81:6f:08:fc:f8:f9:91:91:5b:d4:0d:
                    9e:dd:5f:63:37:fb:cb:97:d2:f5:63:2d:2a:27:7f:
                    c6:13:00:56:7c:f6:de:e0:3d:0c:c5:6c:20:f3:5d:
                    f9:39
                Exponent: 65537 (0x10001)
        X509v3 extensions:
            X509v3 Subject Key Identifier: 
                5B:69:01:D4:84:08:8C:2F:96:AA:91:96:B2:15:A9:62:C8:27:90:F6
            X509v3 Authority Key Identifier: 
                keyid:49:1B:59:29:1A:A0:03:A1:F1:28:B1:E7:5E:A3:52:AB:D6:47:85:28

            X509v3 Basic Constraints: critical
                CA:TRUE
            X509v3 Key Usage: 
                Digital Signature, Certificate Sign, CRL Sign
            X509v3 CRL Distribution Points: 

                Full Name:
                  URI:http://crl.aisec.fraunhofer.de/ids.crl

            Authority Information Access: 
                CA Issuers - URI:http://downloads.aisec.fraunhofer.de/rootcacert2016.cert

    Signature Algorithm: sha256WithRSAEncryption
         72:bb:16:aa:11:5a:57:95:e4:51:1f:a7:e0:d7:05:c1:8d:6c:
         74:5a:d8:1e:3c:44:19:45:f0:10:d7:f5:1a:ff:ad:82:29:4b:
         17:5e:52:0c:94:8e:80:a6:6e:0f:fd:6a:a4:81:88:1d:9d:ac:
         5e:4c:5b:ef:e1:1b:d7:56:0e:33:65:d3:b4:5f:ae:36:03:b4:
         af:81:cd:e0:10:86:ad:9b:17:4c:d5:87:f9:ab:7c:ab:ff:1c:
         9b:eb:00:e7:9e:b5:48:bf:d0:e5:37:68:a3:ae:68:8f:c6:ff:
         cb:a8:a7:39:4a:f8:70:fc:e7:7e:5c:d2:33:f6:e5:72:81:b3:
         61:a3:42:09:98:78:9e:38:d6:e1:d3:7e:89:20:64:29:aa:80:
         b1:07:12:b6:b6:fa:06:06:75:b4:6f:a7:bd:fd:d6:f4:f4:40:
         15:cb:8a:33:dd:22:df:c3:85:b1:95:10:5a:22:e2:b9:3f:0f:
         c9:51:a0:90:8b:68:8f:f2:02:be:e7:53:23:d5:5a:61:77:c6:
         6c:05:ad:f2:52:17:88:15:fd:c3:78:53:ea:0a:2b:85:ea:63:
         db:6f:cd:03:50:4e:20:fe:0d:41:20:3b:14:d5:7d:5d:56:ca:
         ac:90:e9:99:79:d7:89:62:87:71:94:ac:70:66:f8:94:ea:77:
         1b:65:7d:2d
-----BEGIN CERTIFICATE-----
MIID5DCCAsygAwIBAgIBATANBgkqhkiG9w0BAQsFADA9MQswCQYDVQQGEwJERTET
MBEGA1UECgwKRnJhdW5ob2ZlcjEZMBcGA1UEAwwQSURTIFJvb3QgQ0EgMjAxNjAe
Fw0xNjEwMjQxNDQyNDdaFw0yNDEwMjIxNDQyNDdaMDsxCzAJBgNVBAYTAkRFMRMw
EQYDVQQKDApGcmF1bmhvZmVyMRcwFQYDVQQDDA5JRFMgU3ViQ0EgMjAxNjCCASIw
DQYJKoZIhvcNAQEBBQADggEPADCCAQoCggEBAONwJ2y1mLuayqM0NhBk7SNjSu8Y
B06SYMAczVHt2R1vGymLmRlDcbYd/Jc/BfxQnQl4fsetwaJOs2cG309r1gXutjuW
Y7csYP0UBbR/l1xtFuSrLsEns5zn4blIPI9zQ6/df87SQDuq5jGid1++m1az5GS/
6CjJiDNDUJyksBtnIyNbQFM8Yx4CfRWwRvFBqGVornuJtBZGriqeL6mks3Bu43dP
4KykqW94WTFzio9EKYP7m7FmDFXx3v5PrGnln7TyV4tTZi8V3V4ytfnP68dwLZo4
yoFvCPz4+ZGRW9QNnt1fYzf7y5fS9WMtKid/xhMAVnz23uA9DMVsIPNd+TkCAwEA
AaOB8DCB7TAdBgNVHQ4EFgQUW2kB1IQIjC+WqpGWshWpYsgnkPYwHwYDVR0jBBgw
FoAUSRtZKRqgA6HxKLHnXqNSq9ZHhSgwDwYDVR0TAQH/BAUwAwEB/zALBgNVHQ8E
BAMCAYYwNwYDVR0fBDAwLjAsoCqgKIYmaHR0cDovL2NybC5haXNlYy5mcmF1bmhv
ZmVyLmRlL2lkcy5jcmwwVAYIKwYBBQUHAQEESDBGMEQGCCsGAQUFBzAChjhodHRw
Oi8vZG93bmxvYWRzLmFpc2VjLmZyYXVuaG9mZXIuZGUvcm9vdGNhY2VydDIwMTYu
Y2VydDANBgkqhkiG9w0BAQsFAAOCAQEAcrsWqhFaV5XkUR+n4NcFwY1sdFrYHjxE
GUXwENf1Gv+tgilLF15SDJSOgKZuD/1qpIGIHZ2sXkxb7+Eb11YOM2XTtF+uNgO0
r4HN4BCGrZsXTNWH+at8q/8cm+sA5561SL/Q5Tdoo65oj8b/y6inOUr4cPznflzS
M/blcoGzYaNCCZh4njjW4dN+iSBkKaqAsQcStrb6BgZ1tG+nvf3W9PRAFcuKM90i
38OFsZUQWiLiuT8PyVGgkItoj/ICvudTI9VaYXfGbAWt8lIXiBX9w3hT6gorhepj
22/NA1BOIP4NQSA7FNV9XVbKrJDpmXnXiWKHcZSscGb4lOp3G2V9LQ==
-----END CERTIFICATE-----
