-----BEGIN CERTIFICATE-----
MIIDXTCCAkWgAwIBAgIJALo352Qs5JbtMA0GCSqGSIb3DQEBBQUAMD0xCzAJBgNV
BAYTAkRFMRMwEQYDVQQKDApGcmF1bmhvZmVyMRkwFwYDVQQDDBBJRFMgUm9vdCBD
QSAyMDE2MB4XDTE2MTAyMDExNTk1N1oXDTM2MTAxNTExNTk1N1owPTELMAkGA1UE
BhMCREUxEzARBgNVBAoMCkZyYXVuaG9mZXIxGTAXBgNVBAMMEElEUyBSb290IENB
IDIwMTYwggEiMA0GCSqGSIb3DQEBAQUAA4IBDwAwggEKAoIBAQDOPEvC5WloT4qy
JR1evK0v9yOBm1boAdIAEEuEX07L5uN8l5EwQ1Y5yRiStNNkGn2ZxSVJRpsIt1q9
ecH45v67XNCi9omGpUME9Vb2peYdlYBoaqcVZNGksLzOQoNJ02SX4xS2rsTtgWks
lC+OmLoodseCqM5Mp40KcOONPaVWgIe1GwWRkttkEDe/6PqGi9o1l3lez3Rdw9uH
2U0PR2UtFW707k1ilpY85zYZLgJIKJMY5SGI1ovgiSpnq1Vd6QRbxjnY+JqFiECv
fRlmVjslrIyyOnjWJHrS1WY72jDzyDUWR2qrRcpuvRZqg+nzh3Wbz4kmUMxz4a7i
N3stDOwBAgMBAAGjYDBeMB0GA1UdDgQWBBQZaycn+J9W4wfnq1EeFdz48ZbVNTAf
BgNVHSMEGDAWgBQZaycn+J9W4wfnq1EeFdz48ZbVNTAPBgNVHRMBAf8EBTADAQH/
MAsGA1UdDwQEAwIBRjANBgkqhkiG9w0BAQUFAAOCAQEAgoErucWLpd+3pz7Ft/qx
6HHpRaOso6uxoFPFsLkR1f04h7LGTfxcp9VkYQc6pCJaHdFAiuy5YRD0Ib8Dhoqe
kGhuelDU3TK72/LoJd8qVdyhkT8iq8sAX+G+FMcM3jhKRJaqNN08lXzn7M1fkxTe
NwvI3dVyv9BB123fonUE/16T2MR5qNBHmero6oSE4p1XDcOO0kK9i8mbjHdVAoYJ
94OHqEkxHQ3jkqbq2qoJh8jQocX1pCvKPK0dCqEQ+ChRR2GgtIatQ4bE8HY2GZ++
6bJCJvlGdwWHfGB60Ar8fermcT5RzAdmxwuXgy9H81oytg8SoVHp6DjssQp7jLkL
eA==
-----END CERTIFICATE-----
Certificate:
    Data:
        Version: 3 (0x2)
        Serial Number: 1 (0x1)
    Signature Algorithm: sha256WithRSAEncryption
        Issuer: C=DE, O=Fraunhofer, CN=IDS Root CA 2016
        Validity
            Not Before: Oct 20 11:59:57 2016 GMT
            Not After : Oct 18 11:59:57 2024 GMT
        Subject: C=DE, O=Fraunhofer, CN=IDS SubCA 2016
        Subject Public Key Info:
            Public Key Algorithm: rsaEncryption
                Public-Key: (2048 bit)
                Modulus:
                    00:ae:0b:94:36:76:7c:34:d8:37:61:44:5f:1c:68:
                    64:bb:23:d4:77:00:82:48:14:3d:7a:ac:17:24:a2:
                    45:9f:47:25:fe:40:2a:42:be:2e:f2:01:a9:ea:17:
                    a2:67:96:79:9c:0c:99:e0:21:a9:72:8f:64:72:56:
                    e0:ef:0e:d2:42:f1:ca:72:b0:b1:1d:b1:a6:ef:42:
                    a8:fb:87:b6:b9:f6:b8:02:1a:b5:4f:72:fc:ae:77:
                    97:3f:dc:46:b0:7a:44:41:56:fd:7b:b8:b5:b1:86:
                    f8:a7:57:7f:65:d4:95:30:f8:60:37:fb:f7:87:f9:
                    b2:3f:53:a7:bf:7f:d1:b0:ee:ce:1f:78:d2:aa:06:
                    9f:48:70:e8:8c:2c:35:8e:04:de:78:5f:e2:87:63:
                    90:1d:e1:96:2d:37:99:77:f7:e4:29:fd:80:24:b2:
                    ba:9d:e5:2d:a6:86:8c:92:73:cb:6e:0c:e1:86:d7:
                    27:ae:fe:5d:80:73:e4:44:73:7e:dd:82:c7:42:c4:
                    10:00:db:cd:a1:fb:31:fd:6b:40:11:b2:5a:6e:08:
                    4b:a4:98:33:37:96:d6:99:07:59:24:37:58:d5:ca:
                    01:a0:b8:e0:c6:c0:61:a3:4d:9c:5a:ca:81:9a:ec:
                    06:8b:e2:02:23:8a:19:77:a3:49:31:78:4c:df:16:
                    7a:07
                Exponent: 65537 (0x10001)
        X509v3 extensions:
            X509v3 Subject Key Identifier: 
                43:2E:0E:EB:66:C6:2F:AC:1B:24:C7:95:48:92:95:6E:E3:E0:83:1E
            X509v3 Authority Key Identifier: 
                keyid:19:6B:27:27:F8:9F:56:E3:07:E7:AB:51:1E:15:DC:F8:F1:96:D5:35

            X509v3 Basic Constraints: critical
                CA:TRUE
            X509v3 Key Usage: 
                Digital Signature, Certificate Sign, CRL Sign
            X509v3 CRL Distribution Points: 

                Full Name:
                  URI:http://crl.aisec.fraunhofer.de/ids.crl

            Authority Information Access: 
                CA Issuers - URI:http://downloads.aisec.fraunhofer.de/rootcacert2016.cert

    Signature Algorithm: sha256WithRSAEncryption
         5a:90:c0:99:9e:b6:d5:6a:b6:c2:a4:08:17:37:9e:e8:73:e2:
         6e:d1:b0:f6:b4:17:b8:72:e8:8e:36:ff:1f:c6:6a:55:5c:4a:
         7f:ce:7d:af:5f:b5:b4:e4:97:63:af:08:bb:52:21:50:8e:60:
         3b:93:43:59:45:c0:cb:1d:b1:d5:80:67:4d:ab:8e:f1:3b:45:
         87:a8:8e:e2:5d:8f:8f:02:eb:64:41:aa:90:99:93:c6:37:0b:
         39:11:74:4d:65:81:7b:2e:bf:be:95:39:7b:d1:6d:35:26:be:
         8c:d6:68:34:c6:47:72:3b:5d:e6:76:b9:c4:d6:d9:b0:ac:d4:
         b7:c3:92:f3:cf:81:da:36:41:ef:e2:3a:75:db:e0:44:14:94:
         65:13:10:16:f3:19:2c:9a:06:48:31:83:8c:0f:57:62:d5:c0:
         ab:94:73:d3:22:ca:e5:12:79:9c:f5:ee:94:04:58:5a:c7:35:
         44:c2:ef:a9:cf:7e:ab:95:c0:1a:56:0d:5d:eb:6d:05:12:6a:
         ed:33:a8:2d:0b:37:55:51:c2:d2:29:f0:7b:fa:b9:71:46:ff:
         45:27:89:1a:8a:a3:39:fd:7b:b2:ea:d6:02:58:d0:fc:ee:d3:
         7d:53:3e:84:84:8e:d4:35:d3:e0:88:c8:3e:cd:42:1f:bd:e4:
         a0:aa:23:67
-----BEGIN CERTIFICATE-----
MIID5DCCAsygAwIBAgIBATANBgkqhkiG9w0BAQsFADA9MQswCQYDVQQGEwJERTET
MBEGA1UECgwKRnJhdW5ob2ZlcjEZMBcGA1UEAwwQSURTIFJvb3QgQ0EgMjAxNjAe
Fw0xNjEwMjAxMTU5NTdaFw0yNDEwMTgxMTU5NTdaMDsxCzAJBgNVBAYTAkRFMRMw
EQYDVQQKDApGcmF1bmhvZmVyMRcwFQYDVQQDDA5JRFMgU3ViQ0EgMjAxNjCCASIw
DQYJKoZIhvcNAQEBBQADggEPADCCAQoCggEBAK4LlDZ2fDTYN2FEXxxoZLsj1HcA
gkgUPXqsFySiRZ9HJf5AKkK+LvIBqeoXomeWeZwMmeAhqXKPZHJW4O8O0kLxynKw
sR2xpu9CqPuHtrn2uAIatU9y/K53lz/cRrB6REFW/Xu4tbGG+KdXf2XUlTD4YDf7
94f5sj9Tp79/0bDuzh940qoGn0hw6IwsNY4E3nhf4odjkB3hli03mXf35Cn9gCSy
up3lLaaGjJJzy24M4YbXJ67+XYBz5ERzft2Cx0LEEADbzaH7Mf1rQBGyWm4IS6SY
MzeW1pkHWSQ3WNXKAaC44MbAYaNNnFrKgZrsBoviAiOKGXejSTF4TN8WegcCAwEA
AaOB8DCB7TAdBgNVHQ4EFgQUQy4O62bGL6wbJMeVSJKVbuPggx4wHwYDVR0jBBgw
FoAUGWsnJ/ifVuMH56tRHhXc+PGW1TUwDwYDVR0TAQH/BAUwAwEB/zALBgNVHQ8E
BAMCAYYwNwYDVR0fBDAwLjAsoCqgKIYmaHR0cDovL2NybC5haXNlYy5mcmF1bmhv
ZmVyLmRlL2lkcy5jcmwwVAYIKwYBBQUHAQEESDBGMEQGCCsGAQUFBzAChjhodHRw
Oi8vZG93bmxvYWRzLmFpc2VjLmZyYXVuaG9mZXIuZGUvcm9vdGNhY2VydDIwMTYu
Y2VydDANBgkqhkiG9w0BAQsFAAOCAQEAWpDAmZ621Wq2wqQIFzee6HPibtGw9rQX
uHLojjb/H8ZqVVxKf859r1+1tOSXY68Iu1IhUI5gO5NDWUXAyx2x1YBnTauO8TtF
h6iO4l2PjwLrZEGqkJmTxjcLORF0TWWBey6/vpU5e9FtNSa+jNZoNMZHcjtd5na5
xNbZsKzUt8OS88+B2jZB7+I6ddvgRBSUZRMQFvMZLJoGSDGDjA9XYtXAq5Rz0yLK
5RJ5nPXulARYWsc1RMLvqc9+q5XAGlYNXettBRJq7TOoLQs3VVHC0inwe/q5cUb/
RSeJGoqjOf17surWAljQ/O7TfVM+hISO1DXT4IjIPs1CH73koKojZw==
-----END CERTIFICATE-----
