Certificate:
    Data:
        Version: 3 (0x2)
        Serial Number: 1 (0x1)
    Signature Algorithm: sha256WithRSAEncryption
        Issuer: C=DE, O=Company, CN=Test Root CA 2016
        Validity
            Not Before: Oct 25 07:36:19 2016 GMT
            Not After : Oct 23 07:36:19 2024 GMT
        Subject: C=DE, O=Company, CN=Test SubCA 2016
        Subject Public Key Info:
            Public Key Algorithm: rsaEncryption
                Public-Key: (2048 bit)
                Modulus:
                    00:d2:f6:64:b7:8e:31:18:f7:5a:b6:e9:5b:7d:1f:
                    b1:8e:b4:95:ef:d2:0b:6d:b4:37:3b:68:78:d2:05:
                    27:c1:1a:61:ba:f5:f0:b7:66:44:44:2f:6c:9b:77:
                    7b:98:68:55:9d:67:ce:47:3e:60:00:48:f0:98:4d:
                    1c:33:c0:d6:4e:96:4d:1b:d0:7d:6c:d5:4d:f5:49:
                    d8:1e:ee:a9:3e:fc:d4:c9:b4:5a:13:2b:b0:42:27:
                    7d:a9:fd:19:82:7d:83:6f:ac:fa:4e:0d:6f:38:94:
                    5e:eb:40:ee:b7:5d:92:f4:4d:0f:b9:e1:5c:b3:0b:
                    a6:3e:6e:12:8e:d1:77:c5:a1:94:f5:2f:39:91:19:
                    65:24:53:be:59:3b:10:68:31:1f:d5:c0:c7:8d:9e:
                    04:eb:61:2d:a8:02:2f:f4:b4:33:7f:f8:f2:51:5d:
                    6c:60:55:93:be:7e:15:d2:0d:bf:86:d7:df:41:22:
                    24:4c:56:f2:dc:ef:c6:64:60:5e:9a:15:6e:aa:b0:
                    95:56:74:aa:14:a9:03:11:ff:b2:60:5d:2b:af:e7:
                    60:62:f3:d1:cb:57:d3:e6:2c:7c:3e:fb:8e:97:be:
                    38:5b:08:48:2e:45:07:f5:63:06:bb:12:00:10:52:
                    f2:e8:03:33:b2:50:03:62:21:3d:a1:a2:24:9e:40:
                    51:4d
                Exponent: 65537 (0x10001)
        X509v3 extensions:
            X509v3 Subject Key Identifier: 
                A5:55:EC:7E:AC:F0:98:95:EA:58:D7:BF:43:92:2C:65:AA:A0:32:73
            X509v3 Authority Key Identifier: 
                keyid:54:86:D8:2C:2D:D8:33:46:B1:E8:19:F8:42:36:BE:F7:DE:BF:01:B4

            X509v3 Basic Constraints: critical
                CA:TRUE
            X509v3 Key Usage: 
                Digital Signature, Certificate Sign, CRL Sign
    Signature Algorithm: sha256WithRSAEncryption
         91:86:4a:df:ed:72:4c:30:e0:86:d2:12:bc:82:db:73:73:a7:
         dc:1a:51:b7:68:9b:1f:20:58:a3:6d:5f:53:6f:42:12:d5:c1:
         5c:82:d1:e8:ca:47:61:45:a7:bd:b3:60:92:01:0c:90:08:c3:
         15:fe:e8:9f:ef:85:c0:13:38:25:9b:5a:71:d8:3f:2d:0c:06:
         fc:a3:ec:7e:99:88:4f:77:95:8a:44:63:48:9d:3a:30:22:54:
         73:25:96:66:1f:23:17:a8:d6:a5:f3:59:2f:41:87:de:34:7f:
         12:98:ba:ad:6f:ed:b8:b6:6e:2c:c2:0c:e7:78:39:e4:63:58:
         90:83:2b:c7:ea:df:27:61:ba:57:9d:d9:82:51:f0:0d:00:5e:
         ba:03:32:9d:51:a2:69:d4:a7:a3:5b:17:9d:3f:f0:0e:e7:4b:
         cd:3e:6c:83:d4:3a:2c:fe:33:9a:e3:f3:2c:ca:ee:6a:12:01:
         54:73:c0:7e:69:a1:21:ca:5e:1d:fb:0f:e2:1b:46:4e:9f:e3:
         4f:dd:bd:86:f3:8a:e4:ba:68:f1:30:e7:a7:1b:ca:a7:90:68:
         0c:0a:51:62:40:8e:5d:77:47:2f:1d:f3:6d:6a:5d:c8:52:d8:
         30:d7:a4:e3:c0:6f:ea:b2:75:99:88:31:4e:35:96:ff:20:fa:
         ad:15:24:6b
-----BEGIN CERTIFICATE-----
MIIDTzCCAjegAwIBAgIBATANBgkqhkiG9w0BAQsFADA7MQswCQYDVQQGEwJERTEQ
MA4GA1UECgwHQ29tcGFueTEaMBgGA1UEAwwRVGVzdCBSb290IENBIDIwMTYwHhcN
MTYxMDI1MDczNjE5WhcNMjQxMDIzMDczNjE5WjA5MQswCQYDVQQGEwJERTEQMA4G
A1UECgwHQ29tcGFueTEYMBYGA1UEAwwPVGVzdCBTdWJDQSAyMDE2MIIBIjANBgkq
hkiG9w0BAQEFAAOCAQ8AMIIBCgKCAQEA0vZkt44xGPdatulbfR+xjrSV79ILbbQ3
O2h40gUnwRphuvXwt2ZERC9sm3d7mGhVnWfORz5gAEjwmE0cM8DWTpZNG9B9bNVN
9UnYHu6pPvzUybRaEyuwQid9qf0Zgn2Db6z6Tg1vOJRe60Dut12S9E0PueFcswum
Pm4SjtF3xaGU9S85kRllJFO+WTsQaDEf1cDHjZ4E62EtqAIv9LQzf/jyUV1sYFWT
vn4V0g2/htffQSIkTFby3O/GZGBemhVuqrCVVnSqFKkDEf+yYF0rr+dgYvPRy1fT
5ix8PvuOl744WwhILkUH9WMGuxIAEFLy6AMzslADYiE9oaIknkBRTQIDAQABo2Aw
XjAdBgNVHQ4EFgQUpVXsfqzwmJXqWNe/Q5IsZaqgMnMwHwYDVR0jBBgwFoAUVIbY
LC3YM0ax6Bn4Qja+996/AbQwDwYDVR0TAQH/BAUwAwEB/zALBgNVHQ8EBAMCAYYw
DQYJKoZIhvcNAQELBQADggEBAJGGSt/tckww4IbSEryC23Nzp9waUbdomx8gWKNt
X1NvQhLVwVyC0ejKR2FFp72zYJIBDJAIwxX+6J/vhcATOCWbWnHYPy0MBvyj7H6Z
iE93lYpEY0idOjAiVHMllmYfIxeo1qXzWS9Bh940fxKYuq1v7bi2bizCDOd4OeRj
WJCDK8fq3ydhuled2YJR8A0AXroDMp1RomnUp6NbF50/8A7nS80+bIPUOiz+M5rj
8yzK7moSAVRzwH5poSHKXh37D+IbRk6f40/dvYbziuS6aPEw56cbyqeQaAwKUWJA
jl13Ry8d821qXchS2DDXpOPAb+qydZmIMU41lv8g+q0VJGs=
-----END CERTIFICATE-----
