Certificate:
    Data:
        Version: 3 (0x2)
        Serial Number: 1 (0x1)
    Signature Algorithm: sha256WithRSAEncryption
        Issuer: C=DE, O=Fraunhofer, CN=IDS Root CA 2016
        Validity
            Not Before: Oct 25 09:49:47 2016 GMT
            Not After : Oct 23 09:49:47 2024 GMT
        Subject: C=DE, O=Fraunhofer, CN=IDS SubCA 2016
        Subject Public Key Info:
            Public Key Algorithm: rsaEncryption
                Public-Key: (2048 bit)
                Modulus:
                    00:ea:6b:60:b8:15:5c:df:fa:f8:dc:20:ae:b7:e5:
                    0f:af:85:17:19:bd:29:be:77:9a:4c:63:5e:d0:e4:
                    e1:c5:a4:91:66:d2:a6:95:6f:65:0c:15:4c:fc:51:
                    8b:10:5c:05:bd:53:79:a9:3d:81:70:40:44:4f:15:
                    fb:f9:f4:ea:41:7d:4c:0d:93:8a:dd:38:70:21:21:
                    c8:8b:b3:56:81:ff:cf:ea:20:a3:b1:57:8e:26:49:
                    6b:aa:38:48:a1:6e:45:68:52:20:7a:ad:ec:c7:57:
                    37:56:ee:c5:84:ae:a3:47:32:b1:c2:68:5a:8c:9c:
                    5f:38:7b:c4:9c:69:29:9e:f0:30:66:9a:e8:37:68:
                    84:02:77:93:32:5c:b1:c4:7d:3d:86:e0:5d:db:c2:
                    8b:2f:61:39:48:f5:53:7b:87:c2:2d:58:95:2c:6b:
                    3e:da:6c:29:6f:6c:e0:3a:d5:c6:28:31:03:7a:02:
                    f9:21:b7:42:3e:85:82:58:7d:49:f1:5c:5c:bd:c0:
                    5a:33:9a:a8:e6:87:e9:bb:2a:70:d1:15:6b:7e:76:
                    eb:70:45:b6:88:d9:47:d9:69:d8:96:e4:6b:4b:47:
                    28:b5:c6:38:66:c5:9c:8f:b6:02:9a:ec:e5:17:84:
                    69:47:e0:ce:da:c6:1d:d5:80:20:a1:f4:67:a1:5b:
                    71:25
                Exponent: 65537 (0x10001)
        X509v3 extensions:
            X509v3 Subject Key Identifier: 
                F3:85:C5:44:9F:10:A7:BE:AF:8E:6C:54:73:07:31:CB:FB:4F:73:81
            X509v3 Authority Key Identifier: 
                keyid:7B:98:1D:B2:FF:81:B4:DB:D8:C2:5F:1D:88:8A:AD:1A:52:2D:60:2C

            X509v3 Basic Constraints: critical
                CA:TRUE
            X509v3 Key Usage: 
                Digital Signature, Certificate Sign, CRL Sign
            X509v3 CRL Distribution Points: 

                Full Name:
                  URI:http://crl.aisec.fraunhofer.de/ids.crl

            Authority Information Access: 
                CA Issuers - URI:http://downloads.aisec.fraunhofer.de/rootcacert2016.cert

    Signature Algorithm: sha256WithRSAEncryption
         9d:af:8c:90:09:f3:51:1b:f2:26:90:1d:71:97:40:8f:1c:f1:
         0a:67:d8:5e:81:23:49:ed:aa:a7:0c:91:74:68:d6:93:5d:b0:
         2e:8f:55:3b:e4:63:af:76:8a:28:84:8a:31:35:50:2a:32:f4:
         dc:f3:8e:f9:ac:06:fe:2f:fd:eb:f6:d9:01:77:62:f3:b2:3c:
         72:e0:8e:91:de:de:c3:2d:bc:dc:1c:5e:4a:a1:18:f7:3a:4c:
         83:bf:c5:6b:78:0d:96:a5:8c:e9:b0:e5:e5:74:ea:94:c0:a6:
         02:77:46:7c:9d:73:e4:8d:80:4b:21:e9:0b:18:e3:e5:b8:43:
         76:51:16:a1:b2:88:a0:68:ae:73:83:d8:5f:b0:f0:a9:a9:20:
         bc:85:22:b1:af:12:69:3a:7e:21:f7:7f:86:4f:6f:d4:8c:97:
         90:64:3e:f2:72:1c:d6:92:0e:5e:aa:b1:5f:04:5e:53:41:30:
         90:6c:5e:ca:c7:97:45:b5:2a:3e:d2:f9:86:67:f5:2e:60:28:
         43:9c:5e:60:72:d2:b5:1d:9d:07:25:e3:1b:80:b5:9b:de:bc:
         46:15:15:a9:85:6a:74:dc:54:0e:3e:ed:a4:08:11:9e:b5:5d:
         8c:87:c1:84:17:6c:6d:4d:66:95:c7:7a:cb:1c:c1:cc:8e:8c:
         29:e5:6d:71
-----BEGIN CERTIFICATE-----
MIID5DCCAsygAwIBAgIBATANBgkqhkiG9w0BAQsFADA9MQswCQYDVQQGEwJERTET
MBEGA1UECgwKRnJhdW5ob2ZlcjEZMBcGA1UEAwwQSURTIFJvb3QgQ0EgMjAxNjAe
Fw0xNjEwMjUwOTQ5NDdaFw0yNDEwMjMwOTQ5NDdaMDsxCzAJBgNVBAYTAkRFMRMw
EQYDVQQKDApGcmF1bmhvZmVyMRcwFQYDVQQDDA5JRFMgU3ViQ0EgMjAxNjCCASIw
DQYJKoZIhvcNAQEBBQADggEPADCCAQoCggEBAOprYLgVXN/6+NwgrrflD6+FFxm9
Kb53mkxjXtDk4cWkkWbSppVvZQwVTPxRixBcBb1Teak9gXBARE8V+/n06kF9TA2T
it04cCEhyIuzVoH/z+ogo7FXjiZJa6o4SKFuRWhSIHqt7MdXN1buxYSuo0cyscJo
WoycXzh7xJxpKZ7wMGaa6DdohAJ3kzJcscR9PYbgXdvCiy9hOUj1U3uHwi1YlSxr
PtpsKW9s4DrVxigxA3oC+SG3Qj6Fglh9SfFcXL3AWjOaqOaH6bsqcNEVa35263BF
tojZR9lp2Jbka0tHKLXGOGbFnI+2Aprs5ReEaUfgztrGHdWAIKH0Z6FbcSUCAwEA
AaOB8DCB7TAdBgNVHQ4EFgQU84XFRJ8Qp76vjmxUcwcxy/tPc4EwHwYDVR0jBBgw
FoAUe5gdsv+BtNvYwl8diIqtGlItYCwwDwYDVR0TAQH/BAUwAwEB/zALBgNVHQ8E
BAMCAYYwNwYDVR0fBDAwLjAsoCqgKIYmaHR0cDovL2NybC5haXNlYy5mcmF1bmhv
ZmVyLmRlL2lkcy5jcmwwVAYIKwYBBQUHAQEESDBGMEQGCCsGAQUFBzAChjhodHRw
Oi8vZG93bmxvYWRzLmFpc2VjLmZyYXVuaG9mZXIuZGUvcm9vdGNhY2VydDIwMTYu
Y2VydDANBgkqhkiG9w0BAQsFAAOCAQEAna+MkAnzURvyJpAdcZdAjxzxCmfYXoEj
Se2qpwyRdGjWk12wLo9VO+Rjr3aKKISKMTVQKjL03POO+awG/i/96/bZAXdi87I8
cuCOkd7ewy283BxeSqEY9zpMg7/Fa3gNlqWM6bDl5XTqlMCmAndGfJ1z5I2ASyHp
Cxjj5bhDdlEWobKIoGiuc4PYX7DwqakgvIUisa8SaTp+Ifd/hk9v1IyXkGQ+8nIc
1pIOXqqxXwReU0EwkGxeyseXRbUqPtL5hmf1LmAoQ5xeYHLStR2dByXjG4C1m968
RhUVqYVqdNxUDj7tpAgRnrVdjIfBhBdsbU1mlcd6yxzBzI6MKeVtcQ==
-----END CERTIFICATE-----
