-----BEGIN CERTIFICATE-----
MIIDXTCCAkWgAwIBAgIJAKHfbkUHbNzSMA0GCSqGSIb3DQEBBQUAMD0xCzAJBgNV
BAYTAkRFMRMwEQYDVQQKDApGcmF1bmhvZmVyMRkwFwYDVQQDDBBJRFMgUm9vdCBD
QSAyMDE2MB4XDTE2MTAwNzEwNTQxOVoXDTM2MTAwMjEwNTQxOVowPTELMAkGA1UE
BhMCREUxEzARBgNVBAoMCkZyYXVuaG9mZXIxGTAXBgNVBAMMEElEUyBSb290IENB
IDIwMTYwggEiMA0GCSqGSIb3DQEBAQUAA4IBDwAwggEKAoIBAQDEPE3ECic40iJd
8BigoDX6FEoToNJqpwi8HNjfRJYWnkMhAMVSdZH3ZQ3L0CuGKHru/YSkeRyNOi2U
bCI+vCHCgzGpU3bHV6j7WvCW9vZxnYF5b4oa0Imi6enJJKQ+8IlnZaAPwOgdb+fz
CM8muE0Pz+PUeSyc0Ea1RF1SgLZixOwj64UMW7dTPkGoL9xsoALQRMJptUhGoKMV
LlK5n69uYQrERPCV/mdcXwkII48z34w5q5SoL3XRmo4NtoB+41R3IGygmW8yR9Nj
Qhth3WRfcl7R7UGMRspMNmWEq4l+TqPQVSt+kfrWCbm63vLJi0SgsHxIcBbA3r1K
fxVVcMHpAgMBAAGjYDBeMB0GA1UdDgQWBBRK82wGzz4AkkRAn08z9lu+veV11jAf
BgNVHSMEGDAWgBRK82wGzz4AkkRAn08z9lu+veV11jAPBgNVHRMBAf8EBTADAQH/
MAsGA1UdDwQEAwIBRjANBgkqhkiG9w0BAQUFAAOCAQEAmUdcfIIEcUDE/lA/sUVM
KuFI6e7d4uAbr50oTB8eCqZHC6L4hhcMAnNPwiTBQ7gVzHXa4VX6wjhTysWaZCQj
x+pKiupPGzDY6Y4eeysO4xTzLR0SI9kFv7dhqMBiy1j2lkEuLHstZOp9cNQtylVx
+kVUDLctHP64UQTKcwhsvAkxi2EUzp2I8kahCLkWBqwZM88vRDxOCjNPbZz74LoL
swc1hnFKHmqrOUTPuePbDqITT0geBrDCk5E4nJPuA5qirFybjDVJzOfW+0f05EmB
+fn+VRlLaZu8vk1YGZBA/uVzYJXbM1S00DolhAoIYwc8CKHfUeHbRTlOoE/EU9lq
XQ==
-----END CERTIFICATE-----
Certificate:
    Data:
        Version: 3 (0x2)
        Serial Number: 1 (0x1)
    Signature Algorithm: sha1WithRSAEncryption
        Issuer: C=DE, O=Fraunhofer, CN=IDS Root CA 2016
        Validity
            Not Before: Oct  7 10:54:23 2016 GMT
            Not After : Oct  5 10:54:23 2024 GMT
        Subject: C=DE, O=Fraunhofer, CN=IDS SubCA 2016
        Subject Public Key Info:
            Public Key Algorithm: rsaEncryption
                Public-Key: (4096 bit)
                Modulus:
                    00:b6:99:ce:be:3b:d3:9a:36:30:ec:43:93:be:34:
                    94:7a:28:fa:f8:e2:77:49:75:3b:e9:2b:b8:3b:8a:
                    4d:11:a3:a1:d3:90:6e:23:c9:1c:89:29:05:be:70:
                    0a:4d:79:75:93:83:e9:eb:ba:e6:75:06:95:e7:82:
                    bc:f1:f9:58:64:27:92:22:1c:aa:93:04:27:e5:28:
                    c4:e1:7e:71:bb:54:cf:23:eb:4d:5b:9b:2e:61:1a:
                    0b:5d:cf:2d:9d:7d:f1:0a:ee:71:64:42:f4:04:98:
                    4e:af:c8:17:11:03:7d:1b:83:c2:69:f4:96:82:57:
                    36:de:11:94:bf:85:e7:90:a8:97:2b:89:e5:c1:39:
                    52:c8:2c:43:30:4e:85:5c:16:28:9d:3d:94:f1:91:
                    4d:20:c3:51:c8:c0:ef:30:9d:c9:a7:d2:69:a9:58:
                    df:53:34:2f:05:3c:de:3b:81:9c:05:b6:cd:e4:45:
                    0f:8a:bc:05:ea:2b:95:bc:0d:00:56:9c:50:46:50:
                    9a:1a:c4:ce:f4:e2:8c:41:6e:02:3c:a4:fd:0f:2e:
                    a7:4b:48:b6:1a:b1:65:41:6d:79:40:33:92:c6:ef:
                    7b:52:42:f6:60:aa:0e:6a:52:87:2a:56:59:df:2c:
                    b1:a4:f6:19:df:4c:a0:98:40:6b:b0:9d:6f:08:13:
                    93:10:56:9c:36:2a:1b:eb:20:4f:b6:6d:b9:b7:39:
                    16:9d:d5:4a:07:1c:62:93:30:18:77:47:74:47:2f:
                    8e:86:b1:38:5e:09:a5:cd:b5:7a:a8:23:3b:9e:3b:
                    b9:4e:76:56:53:e3:be:09:08:d6:62:9c:05:3c:5f:
                    7f:e2:8c:46:57:be:10:07:e2:63:80:36:c3:d7:46:
                    9f:bc:04:7a:5c:1b:73:f5:31:99:19:a7:88:55:b0:
                    8f:02:62:e3:8d:83:81:f7:61:50:eb:17:36:1f:4f:
                    9f:09:0d:f6:32:bd:6f:0e:4e:da:d8:67:3f:af:02:
                    81:d3:96:89:46:63:a3:a9:01:ee:16:3f:4a:be:9e:
                    72:dd:3a:ea:5a:e5:af:9c:fb:9f:96:fe:dc:80:22:
                    b3:b0:f5:ee:6f:0d:97:9a:6d:4a:52:21:24:c6:35:
                    6f:f8:e3:5c:29:21:55:b4:07:80:56:2a:75:3b:43:
                    67:fe:6a:e1:71:25:45:ff:89:72:69:1a:ca:17:42:
                    41:e1:31:b0:43:ec:aa:2d:8f:4f:fd:8b:60:bc:d7:
                    b9:0f:f9:bb:7a:8a:d5:4b:57:54:b4:17:9d:22:ef:
                    3f:99:1e:83:90:40:46:e6:6e:36:0f:ae:32:08:50:
                    12:bf:16:8c:82:00:e4:0e:5b:de:82:63:fa:98:b2:
                    59:c2:61
                Exponent: 65537 (0x10001)
        X509v3 extensions:
            X509v3 Subject Key Identifier: 
                26:0F:4B:A9:5E:F2:80:DA:AA:9C:E6:70:C9:AF:A4:BB:9A:7D:A6:F5
            X509v3 Authority Key Identifier: 
                keyid:4A:F3:6C:06:CF:3E:00:92:44:40:9F:4F:33:F6:5B:BE:BD:E5:75:D6

            X509v3 Basic Constraints: critical
                CA:TRUE
            X509v3 Key Usage: 
                Digital Signature, Certificate Sign, CRL Sign
            X509v3 CRL Distribution Points: 

                Full Name:
                  URI:http://crl.aisec.fraunhofer.de/ids.crl

            Authority Information Access: 
                CA Issuers - URI://downloads.aisec.fraunhofer.de/rootcacert2016.cert

    Signature Algorithm: sha1WithRSAEncryption
         bb:b3:b2:6c:a2:9d:b4:31:94:14:cf:ba:bd:db:ad:4f:95:8c:
         3b:15:b5:92:b7:09:2a:56:63:ea:7a:35:22:a4:78:13:f1:d9:
         52:3b:92:12:33:15:be:17:4e:43:0d:c3:52:a6:87:c3:94:c1:
         7f:54:2a:02:75:e3:93:12:cd:31:ed:30:b8:bc:2c:73:9e:90:
         2c:79:91:d8:91:b5:a0:36:01:4d:2e:f1:c0:d4:d3:2a:e4:46:
         ca:8c:4b:ef:9a:79:18:68:fc:ba:f6:1e:17:c8:1f:20:26:df:
         6e:28:df:b7:c4:fe:21:18:6f:9a:d5:fc:6f:05:40:78:47:6c:
         4c:34:af:87:b9:0b:02:3a:b1:88:5a:1a:ca:fc:42:26:00:a5:
         02:25:c8:79:b6:cc:58:01:17:9a:24:2a:bd:fd:63:6e:a0:c7:
         71:4b:4c:6c:a8:4a:ab:27:c7:f8:d8:f9:e5:c4:a0:47:0b:d5:
         5c:2e:ce:f1:c6:e1:eb:02:71:70:19:4b:a6:87:90:81:77:19:
         7c:95:d3:ef:ad:21:42:12:70:7a:b4:52:b8:26:02:cb:f2:f9:
         ef:4c:f5:58:f2:65:dc:37:5a:4a:06:83:4f:c7:9a:0a:22:c0:
         ef:4c:cd:cd:14:9c:fe:1c:18:25:fe:44:8a:d7:9e:f2:46:28:
         08:38:23:af
-----BEGIN CERTIFICATE-----
MIIE3zCCA8egAwIBAgIBATANBgkqhkiG9w0BAQUFADA9MQswCQYDVQQGEwJERTET
MBEGA1UECgwKRnJhdW5ob2ZlcjEZMBcGA1UEAwwQSURTIFJvb3QgQ0EgMjAxNjAe
Fw0xNjEwMDcxMDU0MjNaFw0yNDEwMDUxMDU0MjNaMDsxCzAJBgNVBAYTAkRFMRMw
EQYDVQQKDApGcmF1bmhvZmVyMRcwFQYDVQQDDA5JRFMgU3ViQ0EgMjAxNjCCAiIw
DQYJKoZIhvcNAQEBBQADggIPADCCAgoCggIBALaZzr4705o2MOxDk740lHoo+vji
d0l1O+kruDuKTRGjodOQbiPJHIkpBb5wCk15dZOD6eu65nUGleeCvPH5WGQnkiIc
qpMEJ+UoxOF+cbtUzyPrTVubLmEaC13PLZ198QrucWRC9ASYTq/IFxEDfRuDwmn0
loJXNt4RlL+F55ColyuJ5cE5UsgsQzBOhVwWKJ09lPGRTSDDUcjA7zCdyafSaalY
31M0LwU83juBnAW2zeRFD4q8BeorlbwNAFacUEZQmhrEzvTijEFuAjyk/Q8up0tI
thqxZUFteUAzksbve1JC9mCqDmpShypWWd8ssaT2Gd9MoJhAa7CdbwgTkxBWnDYq
G+sgT7Ztubc5Fp3VSgccYpMwGHdHdEcvjoaxOF4Jpc21eqgjO547uU52VlPjvgkI
1mKcBTxff+KMRle+EAfiY4A2w9dGn7wEelwbc/UxmRmniFWwjwJi442DgfdhUOsX
Nh9PnwkN9jK9bw5O2thnP68CgdOWiUZjo6kB7hY/Sr6ect066lrlr5z7n5b+3IAi
s7D17m8Nl5ptSlIhJMY1b/jjXCkhVbQHgFYqdTtDZ/5q4XElRf+JcmkayhdCQeEx
sEPsqi2PT/2LYLzXuQ/5u3qK1UtXVLQXnSLvP5keg5BARuZuNg+uMghQEr8WjIIA
5A5b3oJj+piyWcJhAgMBAAGjgeswgegwHQYDVR0OBBYEFCYPS6le8oDaqpzmcMmv
pLuafab1MB8GA1UdIwQYMBaAFErzbAbPPgCSRECfTzP2W7695XXWMA8GA1UdEwEB
/wQFMAMBAf8wCwYDVR0PBAQDAgGGMDcGA1UdHwQwMC4wLKAqoCiGJmh0dHA6Ly9j
cmwuYWlzZWMuZnJhdW5ob2Zlci5kZS9pZHMuY3JsME8GCCsGAQUFBwEBBEMwQTA/
BggrBgEFBQcwAoYzLy9kb3dubG9hZHMuYWlzZWMuZnJhdW5ob2Zlci5kZS9yb290
Y2FjZXJ0MjAxNi5jZXJ0MA0GCSqGSIb3DQEBBQUAA4IBAQC7s7Jsop20MZQUz7q9
261PlYw7FbWStwkqVmPqejUipHgT8dlSO5ISMxW+F05DDcNSpofDlMF/VCoCdeOT
Es0x7TC4vCxznpAseZHYkbWgNgFNLvHA1NMq5EbKjEvvmnkYaPy69h4XyB8gJt9u
KN+3xP4hGG+a1fxvBUB4R2xMNK+HuQsCOrGIWhrK/EImAKUCJch5tsxYAReaJCq9
/WNuoMdxS0xsqEqrJ8f42PnlxKBHC9VcLs7xxuHrAnFwGUumh5CBdxl8ldPvrSFC
EnB6tFK4JgLL8vnvTPVY8mXcN1pKBoNPx5oKIsDvTM3NFJz+HBgl/kSK157yRigI
OCOv
-----END CERTIFICATE-----
